ARM GAS  C:\Users\USER\AppData\Local\Temp\ccBRqyhL.s 			page 1


   1              		.syntax unified
   2              		.cpu cortex-m3
   3              		.fpu softvfp
   4              		.eabi_attribute 20, 1
   5              		.eabi_attribute 21, 1
   6              		.eabi_attribute 23, 3
   7              		.eabi_attribute 24, 1
   8              		.eabi_attribute 25, 1
   9              		.eabi_attribute 26, 1
  10              		.eabi_attribute 30, 1
  11              		.eabi_attribute 34, 1
  12              		.eabi_attribute 18, 4
  13              		.thumb
  14              		.syntax unified
  15              		.file	"nRF24_COMMANDS.c"
  16              		.text
  17              	.Ltext0:
  18              		.cfi_sections	.debug_frame
  19              		.section	.text.nRF24_send_cmd,"ax",%progbits
  20              		.align	2
  21              		.thumb
  22              		.thumb_func
  23              		.type	nRF24_send_cmd, %function
  24              	nRF24_send_cmd:
  25              	.LFB9:
  26              		.file 1 "Generated_Source\\PSoC5\\nRF24_COMMANDS.c"
   1:Generated_Source\PSoC5/nRF24_COMMANDS.c **** /**
   2:Generated_Source\PSoC5/nRF24_COMMANDS.c **** * @file     nRF24_COMMANDS.c
   3:Generated_Source\PSoC5/nRF24_COMMANDS.c **** * @version  3
   4:Generated_Source\PSoC5/nRF24_COMMANDS.c **** * @brief    nRF24 commands.
   5:Generated_Source\PSoC5/nRF24_COMMANDS.c **** */
   6:Generated_Source\PSoC5/nRF24_COMMANDS.c **** #include <string.h>
   7:Generated_Source\PSoC5/nRF24_COMMANDS.c **** 
   8:Generated_Source\PSoC5/nRF24_COMMANDS.c **** #include "nRF24_CONFIG.h"
   9:Generated_Source\PSoC5/nRF24_COMMANDS.c **** #include "nRF24_HAL.h"
  10:Generated_Source\PSoC5/nRF24_COMMANDS.c **** #include "nRF24_COMMANDS.h"
  11:Generated_Source\PSoC5/nRF24_COMMANDS.c **** #include "nRF24_DEFS.h"
  12:Generated_Source\PSoC5/nRF24_COMMANDS.c **** 
  13:Generated_Source\PSoC5/nRF24_COMMANDS.c **** /**
  14:Generated_Source\PSoC5/nRF24_COMMANDS.c ****  * @brief Send the @c cmd to the nRF24.
  15:Generated_Source\PSoC5/nRF24_COMMANDS.c ****  *
  16:Generated_Source\PSoC5/nRF24_COMMANDS.c ****  * @param[in]   nrf_cmd cmd: Command to be sent.
  17:Generated_Source\PSoC5/nRF24_COMMANDS.c ****  */
  18:Generated_Source\PSoC5/nRF24_COMMANDS.c **** static uint8_t nRF24_send_cmd(const nrf_cmd cmd);
  19:Generated_Source\PSoC5/nRF24_COMMANDS.c **** 
  20:Generated_Source\PSoC5/nRF24_COMMANDS.c **** /**
  21:Generated_Source\PSoC5/nRF24_COMMANDS.c ****  * @brief Reuse the last transmitted payload.
  22:Generated_Source\PSoC5/nRF24_COMMANDS.c ****  *
  23:Generated_Source\PSoC5/nRF24_COMMANDS.c ****  * Reuse last transmitted payload. TX payload reuse is active until
  24:Generated_Source\PSoC5/nRF24_COMMANDS.c ****  * NRF_CMD_W_TX_PAYLOAD or NRF_CMD_FLUSH_TX commands are executed.
  25:Generated_Source\PSoC5/nRF24_COMMANDS.c ****  *
  26:Generated_Source\PSoC5/nRF24_COMMANDS.c ****  * @note Used in TX mode.
  27:Generated_Source\PSoC5/nRF24_COMMANDS.c ****  *
  28:Generated_Source\PSoC5/nRF24_COMMANDS.c ****  * @warning TX payload reuse must not be activated or deactivated during
  29:Generated_Source\PSoC5/nRF24_COMMANDS.c ****  * package transmission.
  30:Generated_Source\PSoC5/nRF24_COMMANDS.c ****  */
  31:Generated_Source\PSoC5/nRF24_COMMANDS.c **** void nRF24_cmd_reuse_tx_payload(void)
ARM GAS  C:\Users\USER\AppData\Local\Temp\ccBRqyhL.s 			page 2


  32:Generated_Source\PSoC5/nRF24_COMMANDS.c **** {
  33:Generated_Source\PSoC5/nRF24_COMMANDS.c ****     nRF24_send_cmd(NRF_CMD_REUSE_TX_PL);
  34:Generated_Source\PSoC5/nRF24_COMMANDS.c **** }
  35:Generated_Source\PSoC5/nRF24_COMMANDS.c **** 
  36:Generated_Source\PSoC5/nRF24_COMMANDS.c **** /**
  37:Generated_Source\PSoC5/nRF24_COMMANDS.c ****  * @brief Flush the RX FIFO.
  38:Generated_Source\PSoC5/nRF24_COMMANDS.c ****  *
  39:Generated_Source\PSoC5/nRF24_COMMANDS.c ****  * @note Used in RX mode.
  40:Generated_Source\PSoC5/nRF24_COMMANDS.c ****  *
  41:Generated_Source\PSoC5/nRF24_COMMANDS.c ****  * @warning Should be not executed during transmission of acknowledge,
  42:Generated_Source\PSoC5/nRF24_COMMANDS.c ****  * that is, acknowledge package will not be completed.
  43:Generated_Source\PSoC5/nRF24_COMMANDS.c ****  */
  44:Generated_Source\PSoC5/nRF24_COMMANDS.c **** void nRF24_cmd_flush_rx(void)
  45:Generated_Source\PSoC5/nRF24_COMMANDS.c **** {
  46:Generated_Source\PSoC5/nRF24_COMMANDS.c ****     nRF24_send_cmd(NRF_CMD_FLUSH_RX);
  47:Generated_Source\PSoC5/nRF24_COMMANDS.c **** }
  48:Generated_Source\PSoC5/nRF24_COMMANDS.c **** 
  49:Generated_Source\PSoC5/nRF24_COMMANDS.c **** /**
  50:Generated_Source\PSoC5/nRF24_COMMANDS.c ****  * @brief Flush the TX FIFO.
  51:Generated_Source\PSoC5/nRF24_COMMANDS.c ****  * 
  52:Generated_Source\PSoC5/nRF24_COMMANDS.c ****  * @note Used in TX mode.
  53:Generated_Source\PSoC5/nRF24_COMMANDS.c ****  */
  54:Generated_Source\PSoC5/nRF24_COMMANDS.c **** void nRF24_cmd_flush_tx(void)
  55:Generated_Source\PSoC5/nRF24_COMMANDS.c **** {
  56:Generated_Source\PSoC5/nRF24_COMMANDS.c ****     nRF24_send_cmd(NRF_CMD_FLUSH_TX);
  57:Generated_Source\PSoC5/nRF24_COMMANDS.c **** }
  58:Generated_Source\PSoC5/nRF24_COMMANDS.c **** 
  59:Generated_Source\PSoC5/nRF24_COMMANDS.c **** /**
  60:Generated_Source\PSoC5/nRF24_COMMANDS.c ****  * @brief
  61:Generated_Source\PSoC5/nRF24_COMMANDS.c ****  * Read RX payload: 1 - 32 bytes. A read operation always starts at byte 0.
  62:Generated_Source\PSoC5/nRF24_COMMANDS.c ****  * Payload is deleted from FIFO after it is read.
  63:Generated_Source\PSoC5/nRF24_COMMANDS.c ****  *
  64:Generated_Source\PSoC5/nRF24_COMMANDS.c ****  * @note Used in RX mode.
  65:Generated_Source\PSoC5/nRF24_COMMANDS.c ****  *
  66:Generated_Source\PSoC5/nRF24_COMMANDS.c ****  * @param payload: payload to be read.
  67:Generated_Source\PSoC5/nRF24_COMMANDS.c ****  * @param data_size: Bytes of payload to be read (max 32).
  68:Generated_Source\PSoC5/nRF24_COMMANDS.c ****  */
  69:Generated_Source\PSoC5/nRF24_COMMANDS.c **** void nRF24_cmd_read_rx_payload(uint8_t *payload, const size_t payload_size)
  70:Generated_Source\PSoC5/nRF24_COMMANDS.c **** {
  71:Generated_Source\PSoC5/nRF24_COMMANDS.c ****     uint8_t nrf_data_out[payload_size + 1];
  72:Generated_Source\PSoC5/nRF24_COMMANDS.c ****     // the nrf_data_in array is to keep the spi sending dummy bytes so the
  73:Generated_Source\PSoC5/nRF24_COMMANDS.c ****     // radio can send us the payload, there's no need to set the array to
  74:Generated_Source\PSoC5/nRF24_COMMANDS.c ****     // any specific value, apart of the first element being the command
  75:Generated_Source\PSoC5/nRF24_COMMANDS.c ****     uint8_t nrf_data_in[payload_size + 1];
  76:Generated_Source\PSoC5/nRF24_COMMANDS.c ****     
  77:Generated_Source\PSoC5/nRF24_COMMANDS.c ****     nrf_data_in[0] = NRF_CMD_R_RX_PAYLOAD;
  78:Generated_Source\PSoC5/nRF24_COMMANDS.c ****     
  79:Generated_Source\PSoC5/nRF24_COMMANDS.c ****     nRF24_spi_xfer(nrf_data_in, nrf_data_out, sizeof(nrf_data_out));
  80:Generated_Source\PSoC5/nRF24_COMMANDS.c ****     
  81:Generated_Source\PSoC5/nRF24_COMMANDS.c ****     memcpy(payload, &nrf_data_out[1], payload_size);
  82:Generated_Source\PSoC5/nRF24_COMMANDS.c **** }
  83:Generated_Source\PSoC5/nRF24_COMMANDS.c **** 
  84:Generated_Source\PSoC5/nRF24_COMMANDS.c **** /**
  85:Generated_Source\PSoC5/nRF24_COMMANDS.c ****  * @brief Write TX payload: 1 - 32 bytes.
  86:Generated_Source\PSoC5/nRF24_COMMANDS.c ****  *
  87:Generated_Source\PSoC5/nRF24_COMMANDS.c ****  * A write operation always starts at byte 0 used in TX payload.
  88:Generated_Source\PSoC5/nRF24_COMMANDS.c ****  *
ARM GAS  C:\Users\USER\AppData\Local\Temp\ccBRqyhL.s 			page 3


  89:Generated_Source\PSoC5/nRF24_COMMANDS.c ****  * @param const uint8_t* data: Data to be sent.
  90:Generated_Source\PSoC5/nRF24_COMMANDS.c ****  * @param const size_t size: Bytes of data to be sent (max 32).
  91:Generated_Source\PSoC5/nRF24_COMMANDS.c ****  */
  92:Generated_Source\PSoC5/nRF24_COMMANDS.c **** void nRF24_cmd_write_tx_payload(const uint8_t *payload, const size_t payload_size)
  93:Generated_Source\PSoC5/nRF24_COMMANDS.c **** {
  94:Generated_Source\PSoC5/nRF24_COMMANDS.c ****     uint8_t nrf_data_in[payload_size + 1];
  95:Generated_Source\PSoC5/nRF24_COMMANDS.c ****     uint8_t nrf_data_out[payload_size + 1];
  96:Generated_Source\PSoC5/nRF24_COMMANDS.c ****     
  97:Generated_Source\PSoC5/nRF24_COMMANDS.c ****     nrf_data_in[0] = NRF_CMD_W_TX_PAYLOAD;
  98:Generated_Source\PSoC5/nRF24_COMMANDS.c ****     memcpy(&nrf_data_in[1], payload, payload_size);
  99:Generated_Source\PSoC5/nRF24_COMMANDS.c ****     
 100:Generated_Source\PSoC5/nRF24_COMMANDS.c ****     nRF24_spi_xfer(nrf_data_in, nrf_data_out, sizeof(nrf_data_in));
 101:Generated_Source\PSoC5/nRF24_COMMANDS.c **** }
 102:Generated_Source\PSoC5/nRF24_COMMANDS.c **** 
 103:Generated_Source\PSoC5/nRF24_COMMANDS.c **** /**
 104:Generated_Source\PSoC5/nRF24_COMMANDS.c ****  * @brief Read RX payload width for the top R_RX_PAYLOAD in the RX FIFO.
 105:Generated_Source\PSoC5/nRF24_COMMANDS.c ****  * 
 106:Generated_Source\PSoC5/nRF24_COMMANDS.c ****  * @note Flush RX FIFO if the read value is larger than 32 bytes.
 107:Generated_Source\PSoC5/nRF24_COMMANDS.c ****  *
 108:Generated_Source\PSoC5/nRF24_COMMANDS.c ****  * @return uint8_t: width of the payload on the top of the RX FIFO.
 109:Generated_Source\PSoC5/nRF24_COMMANDS.c ****  */
 110:Generated_Source\PSoC5/nRF24_COMMANDS.c **** uint8_t nRF24_cmd_read_payload_width(void)
 111:Generated_Source\PSoC5/nRF24_COMMANDS.c **** {
 112:Generated_Source\PSoC5/nRF24_COMMANDS.c ****     uint8_t nrf_data_in[2] = {
 113:Generated_Source\PSoC5/nRF24_COMMANDS.c ****         NRF_CMD_R_RX_PL_WID, NRF_CMD_NOP
 114:Generated_Source\PSoC5/nRF24_COMMANDS.c ****     };
 115:Generated_Source\PSoC5/nRF24_COMMANDS.c ****     // nrf_data_out[0] = STATUS_REGISTER, nrf_data_out[1] = payload_width
 116:Generated_Source\PSoC5/nRF24_COMMANDS.c ****     uint8_t nrf_data_out[2] = {0};
 117:Generated_Source\PSoC5/nRF24_COMMANDS.c ****     
 118:Generated_Source\PSoC5/nRF24_COMMANDS.c ****     nRF24_spi_xfer(nrf_data_in, nrf_data_out, sizeof(nrf_data_in));
 119:Generated_Source\PSoC5/nRF24_COMMANDS.c **** 
 120:Generated_Source\PSoC5/nRF24_COMMANDS.c ****     return nrf_data_out[1];
 121:Generated_Source\PSoC5/nRF24_COMMANDS.c **** }
 122:Generated_Source\PSoC5/nRF24_COMMANDS.c **** 
 123:Generated_Source\PSoC5/nRF24_COMMANDS.c **** /**
 124:Generated_Source\PSoC5/nRF24_COMMANDS.c ****  * @brief Write Payload to be transmitted together with ACK packet.
 125:Generated_Source\PSoC5/nRF24_COMMANDS.c ****  *
 126:Generated_Source\PSoC5/nRF24_COMMANDS.c ****  * Write Payload to be transmitted together with ACK packet on PIPE PPP
 127:Generated_Source\PSoC5/nRF24_COMMANDS.c ****  * (PPP valid in the range from 000 to 101). Maximum three ACK packet
 128:Generated_Source\PSoC5/nRF24_COMMANDS.c ****  * payloads can be pending. Payloads with same PPP are handled using
 129:Generated_Source\PSoC5/nRF24_COMMANDS.c ****  * first in - first out principle.
 130:Generated_Source\PSoC5/nRF24_COMMANDS.c ****  * Write payload: 1 - 32 bytes.
 131:Generated_Source\PSoC5/nRF24_COMMANDS.c ****  * A write operation always starts at byte 0.
 132:Generated_Source\PSoC5/nRF24_COMMANDS.c ****  *
 133:Generated_Source\PSoC5/nRF24_COMMANDS.c ****  * @param const nrf_pipe pipe: Pipe to use.
 134:Generated_Source\PSoC5/nRF24_COMMANDS.c ****  * @param const uint8_t* data: Data to be sent.
 135:Generated_Source\PSoC5/nRF24_COMMANDS.c ****  * @param const size_t size: Bytes of data to be sent (max 32)
 136:Generated_Source\PSoC5/nRF24_COMMANDS.c ****  *
 137:Generated_Source\PSoC5/nRF24_COMMANDS.c ****  * @note Used in RX mode.
 138:Generated_Source\PSoC5/nRF24_COMMANDS.c ****  */
 139:Generated_Source\PSoC5/nRF24_COMMANDS.c **** void nRF24_cmd_write_ack_payload(const nrf_pipe pipe,
 140:Generated_Source\PSoC5/nRF24_COMMANDS.c ****                                             const uint8_t* payload, const size_t payload_size)
 141:Generated_Source\PSoC5/nRF24_COMMANDS.c **** {
 142:Generated_Source\PSoC5/nRF24_COMMANDS.c ****     uint8_t nrf_data_in[payload_size + 1];
 143:Generated_Source\PSoC5/nRF24_COMMANDS.c ****     uint8_t nrf_data_out[payload_size + 1];
 144:Generated_Source\PSoC5/nRF24_COMMANDS.c ****     
 145:Generated_Source\PSoC5/nRF24_COMMANDS.c ****     nrf_data_in[0] = NRF_CMD_W_ACK_PAYLOAD | pipe;
ARM GAS  C:\Users\USER\AppData\Local\Temp\ccBRqyhL.s 			page 4


 146:Generated_Source\PSoC5/nRF24_COMMANDS.c ****     memcpy(&nrf_data_in[1], payload, payload_size);
 147:Generated_Source\PSoC5/nRF24_COMMANDS.c ****     
 148:Generated_Source\PSoC5/nRF24_COMMANDS.c ****     nRF24_spi_xfer(nrf_data_in, nrf_data_out, sizeof(nrf_data_in));
 149:Generated_Source\PSoC5/nRF24_COMMANDS.c **** }
 150:Generated_Source\PSoC5/nRF24_COMMANDS.c **** 
 151:Generated_Source\PSoC5/nRF24_COMMANDS.c **** /**
 152:Generated_Source\PSoC5/nRF24_COMMANDS.c ****  * @brief Disable AUTOACK on this packet.
 153:Generated_Source\PSoC5/nRF24_COMMANDS.c ****  *
 154:Generated_Source\PSoC5/nRF24_COMMANDS.c ****  * @param const uint8_t* data: Data to be sent.
 155:Generated_Source\PSoC5/nRF24_COMMANDS.c ****  * @param const size_t size: Bytes of data to be sent (max 32).
 156:Generated_Source\PSoC5/nRF24_COMMANDS.c ****  *
 157:Generated_Source\PSoC5/nRF24_COMMANDS.c ****  * @note Used in TX mode.
 158:Generated_Source\PSoC5/nRF24_COMMANDS.c ****  */
 159:Generated_Source\PSoC5/nRF24_COMMANDS.c **** void nRF24_cmd_no_ack_payload(const uint8_t* payload, const size_t payload_size)
 160:Generated_Source\PSoC5/nRF24_COMMANDS.c **** {
 161:Generated_Source\PSoC5/nRF24_COMMANDS.c ****     uint8_t nrf_data_in[payload_size + 1];
 162:Generated_Source\PSoC5/nRF24_COMMANDS.c ****     uint8_t nrf_data_out[payload_size + 1];
 163:Generated_Source\PSoC5/nRF24_COMMANDS.c ****     
 164:Generated_Source\PSoC5/nRF24_COMMANDS.c ****     nrf_data_in[0] = NRF_CMD_W_TX_PAYLOAD_NO_ACK;
 165:Generated_Source\PSoC5/nRF24_COMMANDS.c ****     memcpy(&nrf_data_in[1], payload, payload_size);
 166:Generated_Source\PSoC5/nRF24_COMMANDS.c ****     
 167:Generated_Source\PSoC5/nRF24_COMMANDS.c ****     nRF24_spi_xfer(nrf_data_in, nrf_data_out, sizeof(nrf_data_in));
 168:Generated_Source\PSoC5/nRF24_COMMANDS.c **** }
 169:Generated_Source\PSoC5/nRF24_COMMANDS.c **** 
 170:Generated_Source\PSoC5/nRF24_COMMANDS.c **** /**
 171:Generated_Source\PSoC5/nRF24_COMMANDS.c ****  * @brief NOP (No OPeration) Command. Useful to read the STATUS register.
 172:Generated_Source\PSoC5/nRF24_COMMANDS.c ****  *
 173:Generated_Source\PSoC5/nRF24_COMMANDS.c ****  * @return uint8_t: STATUS register.
 174:Generated_Source\PSoC5/nRF24_COMMANDS.c ****  */
 175:Generated_Source\PSoC5/nRF24_COMMANDS.c **** uint8_t nRF24_cmd_nop(void)
 176:Generated_Source\PSoC5/nRF24_COMMANDS.c **** {
 177:Generated_Source\PSoC5/nRF24_COMMANDS.c ****     return nRF24_send_cmd(NRF_CMD_NOP);
 178:Generated_Source\PSoC5/nRF24_COMMANDS.c **** }
 179:Generated_Source\PSoC5/nRF24_COMMANDS.c **** 
 180:Generated_Source\PSoC5/nRF24_COMMANDS.c **** static uint8_t nRF24_send_cmd(const nrf_cmd cmd)
 181:Generated_Source\PSoC5/nRF24_COMMANDS.c **** {
  27              		.loc 1 181 0
  28              		.cfi_startproc
  29              		@ args = 0, pretend = 0, frame = 16
  30              		@ frame_needed = 0, uses_anonymous_args = 0
  31              	.LVL0:
  32 0000 00B5     		push	{lr}
  33              		.cfi_def_cfa_offset 4
  34              		.cfi_offset 14, -4
  35 0002 85B0     		sub	sp, sp, #20
  36              		.cfi_def_cfa_offset 24
  37 0004 8DF80700 		strb	r0, [sp, #7]
 182:Generated_Source\PSoC5/nRF24_COMMANDS.c ****     uint8_t status = 0;
  38              		.loc 1 182 0
  39 0008 04A9     		add	r1, sp, #16
  40 000a 0023     		movs	r3, #0
  41 000c 01F8013D 		strb	r3, [r1, #-1]!
 183:Generated_Source\PSoC5/nRF24_COMMANDS.c ****     nRF24_spi_xfer(&cmd, &status, 1);
  42              		.loc 1 183 0
  43 0010 054B     		ldr	r3, .L3
  44 0012 1B68     		ldr	r3, [r3]
  45 0014 0122     		movs	r2, #1
ARM GAS  C:\Users\USER\AppData\Local\Temp\ccBRqyhL.s 			page 5


  46 0016 0DF10700 		add	r0, sp, #7
  47              	.LVL1:
  48 001a 9847     		blx	r3
  49              	.LVL2:
 184:Generated_Source\PSoC5/nRF24_COMMANDS.c ****     return status;
 185:Generated_Source\PSoC5/nRF24_COMMANDS.c **** }
  50              		.loc 1 185 0
  51 001c 9DF80F00 		ldrb	r0, [sp, #15]	@ zero_extendqisi2
  52 0020 05B0     		add	sp, sp, #20
  53              		.cfi_def_cfa_offset 4
  54              		@ sp needed
  55 0022 5DF804FB 		ldr	pc, [sp], #4
  56              	.LVL3:
  57              	.L4:
  58 0026 00BF     		.align	2
  59              	.L3:
  60 0028 00000000 		.word	nRF24_spi_xfer
  61              		.cfi_endproc
  62              	.LFE9:
  63              		.size	nRF24_send_cmd, .-nRF24_send_cmd
  64              		.section	.text.nRF24_cmd_reuse_tx_payload,"ax",%progbits
  65              		.align	2
  66              		.global	nRF24_cmd_reuse_tx_payload
  67              		.thumb
  68              		.thumb_func
  69              		.type	nRF24_cmd_reuse_tx_payload, %function
  70              	nRF24_cmd_reuse_tx_payload:
  71              	.LFB0:
  32:Generated_Source\PSoC5/nRF24_COMMANDS.c ****     nRF24_send_cmd(NRF_CMD_REUSE_TX_PL);
  72              		.loc 1 32 0
  73              		.cfi_startproc
  74              		@ args = 0, pretend = 0, frame = 0
  75              		@ frame_needed = 0, uses_anonymous_args = 0
  76 0000 08B5     		push	{r3, lr}
  77              		.cfi_def_cfa_offset 8
  78              		.cfi_offset 3, -8
  79              		.cfi_offset 14, -4
  33:Generated_Source\PSoC5/nRF24_COMMANDS.c **** }
  80              		.loc 1 33 0
  81 0002 E320     		movs	r0, #227
  82 0004 FFF7FEFF 		bl	nRF24_send_cmd
  83              	.LVL4:
  84 0008 08BD     		pop	{r3, pc}
  85              		.cfi_endproc
  86              	.LFE0:
  87              		.size	nRF24_cmd_reuse_tx_payload, .-nRF24_cmd_reuse_tx_payload
  88 000a 00BF     		.section	.text.nRF24_cmd_flush_rx,"ax",%progbits
  89              		.align	2
  90              		.global	nRF24_cmd_flush_rx
  91              		.thumb
  92              		.thumb_func
  93              		.type	nRF24_cmd_flush_rx, %function
  94              	nRF24_cmd_flush_rx:
  95              	.LFB1:
  45:Generated_Source\PSoC5/nRF24_COMMANDS.c ****     nRF24_send_cmd(NRF_CMD_FLUSH_RX);
  96              		.loc 1 45 0
  97              		.cfi_startproc
ARM GAS  C:\Users\USER\AppData\Local\Temp\ccBRqyhL.s 			page 6


  98              		@ args = 0, pretend = 0, frame = 0
  99              		@ frame_needed = 0, uses_anonymous_args = 0
 100 0000 08B5     		push	{r3, lr}
 101              		.cfi_def_cfa_offset 8
 102              		.cfi_offset 3, -8
 103              		.cfi_offset 14, -4
  46:Generated_Source\PSoC5/nRF24_COMMANDS.c **** }
 104              		.loc 1 46 0
 105 0002 E220     		movs	r0, #226
 106 0004 FFF7FEFF 		bl	nRF24_send_cmd
 107              	.LVL5:
 108 0008 08BD     		pop	{r3, pc}
 109              		.cfi_endproc
 110              	.LFE1:
 111              		.size	nRF24_cmd_flush_rx, .-nRF24_cmd_flush_rx
 112 000a 00BF     		.section	.text.nRF24_cmd_flush_tx,"ax",%progbits
 113              		.align	2
 114              		.global	nRF24_cmd_flush_tx
 115              		.thumb
 116              		.thumb_func
 117              		.type	nRF24_cmd_flush_tx, %function
 118              	nRF24_cmd_flush_tx:
 119              	.LFB2:
  55:Generated_Source\PSoC5/nRF24_COMMANDS.c ****     nRF24_send_cmd(NRF_CMD_FLUSH_TX);
 120              		.loc 1 55 0
 121              		.cfi_startproc
 122              		@ args = 0, pretend = 0, frame = 0
 123              		@ frame_needed = 0, uses_anonymous_args = 0
 124 0000 08B5     		push	{r3, lr}
 125              		.cfi_def_cfa_offset 8
 126              		.cfi_offset 3, -8
 127              		.cfi_offset 14, -4
  56:Generated_Source\PSoC5/nRF24_COMMANDS.c **** }
 128              		.loc 1 56 0
 129 0002 E120     		movs	r0, #225
 130 0004 FFF7FEFF 		bl	nRF24_send_cmd
 131              	.LVL6:
 132 0008 08BD     		pop	{r3, pc}
 133              		.cfi_endproc
 134              	.LFE2:
 135              		.size	nRF24_cmd_flush_tx, .-nRF24_cmd_flush_tx
 136 000a 00BF     		.section	.text.nRF24_cmd_read_rx_payload,"ax",%progbits
 137              		.align	2
 138              		.global	nRF24_cmd_read_rx_payload
 139              		.thumb
 140              		.thumb_func
 141              		.type	nRF24_cmd_read_rx_payload, %function
 142              	nRF24_cmd_read_rx_payload:
 143              	.LFB3:
  70:Generated_Source\PSoC5/nRF24_COMMANDS.c ****     uint8_t nrf_data_out[payload_size + 1];
 144              		.loc 1 70 0
 145              		.cfi_startproc
 146              		@ args = 0, pretend = 0, frame = 0
 147              		@ frame_needed = 1, uses_anonymous_args = 0
 148              	.LVL7:
 149 0000 F8B5     		push	{r3, r4, r5, r6, r7, lr}
 150              		.cfi_def_cfa_offset 24
ARM GAS  C:\Users\USER\AppData\Local\Temp\ccBRqyhL.s 			page 7


 151              		.cfi_offset 3, -24
 152              		.cfi_offset 4, -20
 153              		.cfi_offset 5, -16
 154              		.cfi_offset 6, -12
 155              		.cfi_offset 7, -8
 156              		.cfi_offset 14, -4
 157 0002 00AF     		add	r7, sp, #0
 158              		.cfi_def_cfa_register 7
 159 0004 0646     		mov	r6, r0
 160 0006 0C46     		mov	r4, r1
  71:Generated_Source\PSoC5/nRF24_COMMANDS.c ****     // the nrf_data_in array is to keep the spi sending dummy bytes so the
 161              		.loc 1 71 0
 162 0008 01F10803 		add	r3, r1, #8
 163 000c 23F00703 		bic	r3, r3, #7
 164 0010 ADEB030D 		sub	sp, sp, r3
 165 0014 6D46     		mov	r5, sp
 166              	.LVL8:
  75:Generated_Source\PSoC5/nRF24_COMMANDS.c ****     
 167              		.loc 1 75 0
 168 0016 ADEB030D 		sub	sp, sp, r3
 169              	.LVL9:
  77:Generated_Source\PSoC5/nRF24_COMMANDS.c ****     
 170              		.loc 1 77 0
 171 001a 6123     		movs	r3, #97
 172 001c 8DF80030 		strb	r3, [sp]
  79:Generated_Source\PSoC5/nRF24_COMMANDS.c ****     
 173              		.loc 1 79 0
 174 0020 064B     		ldr	r3, .L13
 175 0022 1B68     		ldr	r3, [r3]
 176 0024 4A1C     		adds	r2, r1, #1
 177 0026 2946     		mov	r1, r5
 178              	.LVL10:
 179 0028 6846     		mov	r0, sp
 180              	.LVL11:
 181 002a 9847     		blx	r3
 182              	.LVL12:
  81:Generated_Source\PSoC5/nRF24_COMMANDS.c **** }
 183              		.loc 1 81 0
 184 002c 2246     		mov	r2, r4
 185 002e 691C     		adds	r1, r5, #1
 186 0030 3046     		mov	r0, r6
 187 0032 FFF7FEFF 		bl	memcpy
 188              	.LVL13:
  82:Generated_Source\PSoC5/nRF24_COMMANDS.c **** 
 189              		.loc 1 82 0
 190 0036 BD46     		mov	sp, r7
 191              		.cfi_def_cfa_register 13
 192              	.LVL14:
 193              		@ sp needed
 194 0038 F8BD     		pop	{r3, r4, r5, r6, r7, pc}
 195              	.LVL15:
 196              	.L14:
 197 003a 00BF     		.align	2
 198              	.L13:
 199 003c 00000000 		.word	nRF24_spi_xfer
 200              		.cfi_endproc
 201              	.LFE3:
ARM GAS  C:\Users\USER\AppData\Local\Temp\ccBRqyhL.s 			page 8


 202              		.size	nRF24_cmd_read_rx_payload, .-nRF24_cmd_read_rx_payload
 203              		.section	.text.nRF24_cmd_write_tx_payload,"ax",%progbits
 204              		.align	2
 205              		.global	nRF24_cmd_write_tx_payload
 206              		.thumb
 207              		.thumb_func
 208              		.type	nRF24_cmd_write_tx_payload, %function
 209              	nRF24_cmd_write_tx_payload:
 210              	.LFB4:
  93:Generated_Source\PSoC5/nRF24_COMMANDS.c ****     uint8_t nrf_data_in[payload_size + 1];
 211              		.loc 1 93 0
 212              		.cfi_startproc
 213              		@ args = 0, pretend = 0, frame = 0
 214              		@ frame_needed = 1, uses_anonymous_args = 0
 215              	.LVL16:
 216 0000 B0B5     		push	{r4, r5, r7, lr}
 217              		.cfi_def_cfa_offset 16
 218              		.cfi_offset 4, -16
 219              		.cfi_offset 5, -12
 220              		.cfi_offset 7, -8
 221              		.cfi_offset 14, -4
 222 0002 00AF     		add	r7, sp, #0
 223              		.cfi_def_cfa_register 7
 224 0004 0A46     		mov	r2, r1
  94:Generated_Source\PSoC5/nRF24_COMMANDS.c ****     uint8_t nrf_data_out[payload_size + 1];
 225              		.loc 1 94 0
 226 0006 4D1C     		adds	r5, r1, #1
 227 0008 01F10803 		add	r3, r1, #8
 228 000c 23F00703 		bic	r3, r3, #7
 229 0010 ADEB030D 		sub	sp, sp, r3
 230 0014 6C46     		mov	r4, sp
 231              	.LVL17:
  95:Generated_Source\PSoC5/nRF24_COMMANDS.c ****     
 232              		.loc 1 95 0
 233 0016 ADEB030D 		sub	sp, sp, r3
 234              	.LVL18:
  97:Generated_Source\PSoC5/nRF24_COMMANDS.c ****     memcpy(&nrf_data_in[1], payload, payload_size);
 235              		.loc 1 97 0
 236 001a 2346     		mov	r3, r4
 237 001c A021     		movs	r1, #160
 238              	.LVL19:
 239 001e 03F8011B 		strb	r1, [r3], #1
  98:Generated_Source\PSoC5/nRF24_COMMANDS.c ****     
 240              		.loc 1 98 0
 241 0022 0146     		mov	r1, r0
 242 0024 1846     		mov	r0, r3
 243              	.LVL20:
 244 0026 FFF7FEFF 		bl	memcpy
 245              	.LVL21:
 100:Generated_Source\PSoC5/nRF24_COMMANDS.c **** }
 246              		.loc 1 100 0
 247 002a 044B     		ldr	r3, .L17
 248 002c 1B68     		ldr	r3, [r3]
 249 002e 2A46     		mov	r2, r5
 250 0030 6946     		mov	r1, sp
 251 0032 2046     		mov	r0, r4
 252 0034 9847     		blx	r3
ARM GAS  C:\Users\USER\AppData\Local\Temp\ccBRqyhL.s 			page 9


 253              	.LVL22:
 101:Generated_Source\PSoC5/nRF24_COMMANDS.c **** 
 254              		.loc 1 101 0
 255 0036 BD46     		mov	sp, r7
 256              		.cfi_def_cfa_register 13
 257              	.LVL23:
 258              		@ sp needed
 259 0038 B0BD     		pop	{r4, r5, r7, pc}
 260              	.LVL24:
 261              	.L18:
 262 003a 00BF     		.align	2
 263              	.L17:
 264 003c 00000000 		.word	nRF24_spi_xfer
 265              		.cfi_endproc
 266              	.LFE4:
 267              		.size	nRF24_cmd_write_tx_payload, .-nRF24_cmd_write_tx_payload
 268              		.section	.text.nRF24_cmd_read_payload_width,"ax",%progbits
 269              		.align	2
 270              		.global	nRF24_cmd_read_payload_width
 271              		.thumb
 272              		.thumb_func
 273              		.type	nRF24_cmd_read_payload_width, %function
 274              	nRF24_cmd_read_payload_width:
 275              	.LFB5:
 111:Generated_Source\PSoC5/nRF24_COMMANDS.c ****     uint8_t nrf_data_in[2] = {
 276              		.loc 1 111 0
 277              		.cfi_startproc
 278              		@ args = 0, pretend = 0, frame = 8
 279              		@ frame_needed = 0, uses_anonymous_args = 0
 280 0000 00B5     		push	{lr}
 281              		.cfi_def_cfa_offset 4
 282              		.cfi_offset 14, -4
 283 0002 83B0     		sub	sp, sp, #12
 284              		.cfi_def_cfa_offset 16
 112:Generated_Source\PSoC5/nRF24_COMMANDS.c ****         NRF_CMD_R_RX_PL_WID, NRF_CMD_NOP
 285              		.loc 1 112 0
 286 0004 084B     		ldr	r3, .L21
 287 0006 1B88     		ldrh	r3, [r3]	@ unaligned
 288 0008 ADF80430 		strh	r3, [sp, #4]	@ unaligned
 116:Generated_Source\PSoC5/nRF24_COMMANDS.c ****     
 289              		.loc 1 116 0
 290 000c 02A9     		add	r1, sp, #8
 291 000e 0023     		movs	r3, #0
 292 0010 21F8083D 		strh	r3, [r1, #-8]!	@ movhi
 118:Generated_Source\PSoC5/nRF24_COMMANDS.c **** 
 293              		.loc 1 118 0
 294 0014 054B     		ldr	r3, .L21+4
 295 0016 1B68     		ldr	r3, [r3]
 296 0018 0222     		movs	r2, #2
 297 001a 01A8     		add	r0, sp, #4
 298 001c 9847     		blx	r3
 299              	.LVL25:
 121:Generated_Source\PSoC5/nRF24_COMMANDS.c **** 
 300              		.loc 1 121 0
 301 001e 9DF80100 		ldrb	r0, [sp, #1]	@ zero_extendqisi2
 302 0022 03B0     		add	sp, sp, #12
 303              		.cfi_def_cfa_offset 4
ARM GAS  C:\Users\USER\AppData\Local\Temp\ccBRqyhL.s 			page 10


 304              		@ sp needed
 305 0024 5DF804FB 		ldr	pc, [sp], #4
 306              	.L22:
 307              		.align	2
 308              	.L21:
 309 0028 00000000 		.word	.LANCHOR0
 310 002c 00000000 		.word	nRF24_spi_xfer
 311              		.cfi_endproc
 312              	.LFE5:
 313              		.size	nRF24_cmd_read_payload_width, .-nRF24_cmd_read_payload_width
 314              		.section	.text.nRF24_cmd_write_ack_payload,"ax",%progbits
 315              		.align	2
 316              		.global	nRF24_cmd_write_ack_payload
 317              		.thumb
 318              		.thumb_func
 319              		.type	nRF24_cmd_write_ack_payload, %function
 320              	nRF24_cmd_write_ack_payload:
 321              	.LFB6:
 141:Generated_Source\PSoC5/nRF24_COMMANDS.c ****     uint8_t nrf_data_in[payload_size + 1];
 322              		.loc 1 141 0
 323              		.cfi_startproc
 324              		@ args = 0, pretend = 0, frame = 0
 325              		@ frame_needed = 1, uses_anonymous_args = 0
 326              	.LVL26:
 327 0000 B0B5     		push	{r4, r5, r7, lr}
 328              		.cfi_def_cfa_offset 16
 329              		.cfi_offset 4, -16
 330              		.cfi_offset 5, -12
 331              		.cfi_offset 7, -8
 332              		.cfi_offset 14, -4
 333 0002 00AF     		add	r7, sp, #0
 334              		.cfi_def_cfa_register 7
 335 0004 1346     		mov	r3, r2
 142:Generated_Source\PSoC5/nRF24_COMMANDS.c ****     uint8_t nrf_data_out[payload_size + 1];
 336              		.loc 1 142 0
 337 0006 551C     		adds	r5, r2, #1
 338 0008 0833     		adds	r3, r3, #8
 339 000a 23F00703 		bic	r3, r3, #7
 340 000e ADEB030D 		sub	sp, sp, r3
 341 0012 6C46     		mov	r4, sp
 342              	.LVL27:
 143:Generated_Source\PSoC5/nRF24_COMMANDS.c ****     
 343              		.loc 1 143 0
 344 0014 ADEB030D 		sub	sp, sp, r3
 345              	.LVL28:
 145:Generated_Source\PSoC5/nRF24_COMMANDS.c ****     memcpy(&nrf_data_in[1], payload, payload_size);
 346              		.loc 1 145 0
 347 0018 60F05703 		orn	r3, r0, #87
 348 001c 2046     		mov	r0, r4
 349              	.LVL29:
 350 001e 00F8013B 		strb	r3, [r0], #1
 146:Generated_Source\PSoC5/nRF24_COMMANDS.c ****     
 351              		.loc 1 146 0
 352 0022 FFF7FEFF 		bl	memcpy
 353              	.LVL30:
 148:Generated_Source\PSoC5/nRF24_COMMANDS.c **** }
 354              		.loc 1 148 0
ARM GAS  C:\Users\USER\AppData\Local\Temp\ccBRqyhL.s 			page 11


 355 0026 044B     		ldr	r3, .L25
 356 0028 1B68     		ldr	r3, [r3]
 357 002a 2A46     		mov	r2, r5
 358 002c 6946     		mov	r1, sp
 359 002e 2046     		mov	r0, r4
 360 0030 9847     		blx	r3
 361              	.LVL31:
 149:Generated_Source\PSoC5/nRF24_COMMANDS.c **** 
 362              		.loc 1 149 0
 363 0032 BD46     		mov	sp, r7
 364              		.cfi_def_cfa_register 13
 365              	.LVL32:
 366              		@ sp needed
 367 0034 B0BD     		pop	{r4, r5, r7, pc}
 368              	.LVL33:
 369              	.L26:
 370 0036 00BF     		.align	2
 371              	.L25:
 372 0038 00000000 		.word	nRF24_spi_xfer
 373              		.cfi_endproc
 374              	.LFE6:
 375              		.size	nRF24_cmd_write_ack_payload, .-nRF24_cmd_write_ack_payload
 376              		.section	.text.nRF24_cmd_no_ack_payload,"ax",%progbits
 377              		.align	2
 378              		.global	nRF24_cmd_no_ack_payload
 379              		.thumb
 380              		.thumb_func
 381              		.type	nRF24_cmd_no_ack_payload, %function
 382              	nRF24_cmd_no_ack_payload:
 383              	.LFB7:
 160:Generated_Source\PSoC5/nRF24_COMMANDS.c ****     uint8_t nrf_data_in[payload_size + 1];
 384              		.loc 1 160 0
 385              		.cfi_startproc
 386              		@ args = 0, pretend = 0, frame = 0
 387              		@ frame_needed = 1, uses_anonymous_args = 0
 388              	.LVL34:
 389 0000 B0B5     		push	{r4, r5, r7, lr}
 390              		.cfi_def_cfa_offset 16
 391              		.cfi_offset 4, -16
 392              		.cfi_offset 5, -12
 393              		.cfi_offset 7, -8
 394              		.cfi_offset 14, -4
 395 0002 00AF     		add	r7, sp, #0
 396              		.cfi_def_cfa_register 7
 397 0004 0A46     		mov	r2, r1
 161:Generated_Source\PSoC5/nRF24_COMMANDS.c ****     uint8_t nrf_data_out[payload_size + 1];
 398              		.loc 1 161 0
 399 0006 4D1C     		adds	r5, r1, #1
 400 0008 01F10803 		add	r3, r1, #8
 401 000c 23F00703 		bic	r3, r3, #7
 402 0010 ADEB030D 		sub	sp, sp, r3
 403 0014 6C46     		mov	r4, sp
 404              	.LVL35:
 162:Generated_Source\PSoC5/nRF24_COMMANDS.c ****     
 405              		.loc 1 162 0
 406 0016 ADEB030D 		sub	sp, sp, r3
 407              	.LVL36:
ARM GAS  C:\Users\USER\AppData\Local\Temp\ccBRqyhL.s 			page 12


 164:Generated_Source\PSoC5/nRF24_COMMANDS.c ****     memcpy(&nrf_data_in[1], payload, payload_size);
 408              		.loc 1 164 0
 409 001a 2346     		mov	r3, r4
 410 001c B021     		movs	r1, #176
 411              	.LVL37:
 412 001e 03F8011B 		strb	r1, [r3], #1
 165:Generated_Source\PSoC5/nRF24_COMMANDS.c ****     
 413              		.loc 1 165 0
 414 0022 0146     		mov	r1, r0
 415 0024 1846     		mov	r0, r3
 416              	.LVL38:
 417 0026 FFF7FEFF 		bl	memcpy
 418              	.LVL39:
 167:Generated_Source\PSoC5/nRF24_COMMANDS.c **** }
 419              		.loc 1 167 0
 420 002a 044B     		ldr	r3, .L29
 421 002c 1B68     		ldr	r3, [r3]
 422 002e 2A46     		mov	r2, r5
 423 0030 6946     		mov	r1, sp
 424 0032 2046     		mov	r0, r4
 425 0034 9847     		blx	r3
 426              	.LVL40:
 168:Generated_Source\PSoC5/nRF24_COMMANDS.c **** 
 427              		.loc 1 168 0
 428 0036 BD46     		mov	sp, r7
 429              		.cfi_def_cfa_register 13
 430              	.LVL41:
 431              		@ sp needed
 432 0038 B0BD     		pop	{r4, r5, r7, pc}
 433              	.LVL42:
 434              	.L30:
 435 003a 00BF     		.align	2
 436              	.L29:
 437 003c 00000000 		.word	nRF24_spi_xfer
 438              		.cfi_endproc
 439              	.LFE7:
 440              		.size	nRF24_cmd_no_ack_payload, .-nRF24_cmd_no_ack_payload
 441              		.section	.text.nRF24_cmd_nop,"ax",%progbits
 442              		.align	2
 443              		.global	nRF24_cmd_nop
 444              		.thumb
 445              		.thumb_func
 446              		.type	nRF24_cmd_nop, %function
 447              	nRF24_cmd_nop:
 448              	.LFB8:
 176:Generated_Source\PSoC5/nRF24_COMMANDS.c ****     return nRF24_send_cmd(NRF_CMD_NOP);
 449              		.loc 1 176 0
 450              		.cfi_startproc
 451              		@ args = 0, pretend = 0, frame = 0
 452              		@ frame_needed = 0, uses_anonymous_args = 0
 453 0000 08B5     		push	{r3, lr}
 454              		.cfi_def_cfa_offset 8
 455              		.cfi_offset 3, -8
 456              		.cfi_offset 14, -4
 177:Generated_Source\PSoC5/nRF24_COMMANDS.c **** }
 457              		.loc 1 177 0
 458 0002 FF20     		movs	r0, #255
ARM GAS  C:\Users\USER\AppData\Local\Temp\ccBRqyhL.s 			page 13


 459 0004 FFF7FEFF 		bl	nRF24_send_cmd
 460              	.LVL43:
 178:Generated_Source\PSoC5/nRF24_COMMANDS.c **** 
 461              		.loc 1 178 0
 462 0008 08BD     		pop	{r3, pc}
 463              		.cfi_endproc
 464              	.LFE8:
 465              		.size	nRF24_cmd_nop, .-nRF24_cmd_nop
 466 000a 00BF     		.section	.rodata
 467              		.align	2
 468              		.set	.LANCHOR0,. + 0
 469              	.LC0:
 470 0000 60       		.byte	96
 471 0001 FF       		.byte	-1
 472              		.text
 473              	.Letext0:
 474              		.file 2 "c:\\program files (x86)\\cypress\\psoc creator\\4.2\\psoc creator\\import\\gnu\\arm\\5.4.
 475              		.file 3 "c:\\program files (x86)\\cypress\\psoc creator\\4.2\\psoc creator\\import\\gnu\\arm\\5.4.
 476              		.file 4 "c:\\program files (x86)\\cypress\\psoc creator\\4.2\\psoc creator\\import\\gnu\\arm\\5.4.
 477              		.file 5 "Generated_Source\\PSoC5\\nRF24_DEFS.h"
 478              		.file 6 "Generated_Source\\PSoC5\\nRF24_HAL.h"