ARM GAS  C:\Users\USER\AppData\Local\Temp\cc6144Da.s 			page 1


   1              		.syntax unified
   2              		.cpu cortex-m3
   3              		.fpu softvfp
   4              		.eabi_attribute 20, 1
   5              		.eabi_attribute 21, 1
   6              		.eabi_attribute 23, 3
   7              		.eabi_attribute 24, 1
   8              		.eabi_attribute 25, 1
   9              		.eabi_attribute 26, 1
  10              		.eabi_attribute 30, 1
  11              		.eabi_attribute 34, 1
  12              		.eabi_attribute 18, 4
  13              		.thumb
  14              		.syntax unified
  15              		.file	"nRF24_HAL.c"
  16              		.text
  17              	.Ltext0:
  18              		.cfi_sections	.debug_frame
  19              		.section	.text.nRF24_spi_clear_fifo,"ax",%progbits
  20              		.align	2
  21              		.thumb
  22              		.thumb_func
  23              		.type	nRF24_spi_clear_fifo, %function
  24              	nRF24_spi_clear_fifo:
  25              	.LFB10:
  26              		.file 1 "Generated_Source\\PSoC5\\nRF24_HAL.c"
   1:Generated_Source\PSoC5/nRF24_HAL.c **** /**
   2:Generated_Source\PSoC5/nRF24_HAL.c **** * @file     nRF24_HAL.c
   3:Generated_Source\PSoC5/nRF24_HAL.c **** * @version  3
   4:Generated_Source\PSoC5/nRF24_HAL.c **** * @brief    The nRF24 radio is controlled via SPI, this file have all the SPI
   5:Generated_Source\PSoC5/nRF24_HAL.c **** * communication between the PSoC and the nRF24 radio.
   6:Generated_Source\PSoC5/nRF24_HAL.c **** */
   7:Generated_Source\PSoC5/nRF24_HAL.c **** 
   8:Generated_Source\PSoC5/nRF24_HAL.c **** #include <stdint.h>
   9:Generated_Source\PSoC5/nRF24_HAL.c **** #include <string.h>
  10:Generated_Source\PSoC5/nRF24_HAL.c **** 
  11:Generated_Source\PSoC5/nRF24_HAL.c **** #include "nRF24_CONFIG.h"
  12:Generated_Source\PSoC5/nRF24_HAL.c **** #include "nRF24_HAL.h"
  13:Generated_Source\PSoC5/nRF24_HAL.c **** 
  14:Generated_Source\PSoC5/nRF24_HAL.c **** #if defined (_PSOC6)
  15:Generated_Source\PSoC5/nRF24_HAL.c **** # include "gpio/cy_gpio.h"
  16:Generated_Source\PSoC5/nRF24_HAL.c **** #else // (_PSOC_UDB) || (_PSOC4)
  17:Generated_Source\PSoC5/nRF24_HAL.c **** # if defined (_PSOC4_SCB)
  18:Generated_Source\PSoC5/nRF24_HAL.c **** #  include "SPI_SPI_UART.h" // may be no longer necessary
  19:Generated_Source\PSoC5/nRF24_HAL.c **** # endif
  20:Generated_Source\PSoC5/nRF24_HAL.c **** # include "CE.h"
  21:Generated_Source\PSoC5/nRF24_HAL.c **** # include "SS.h"
  22:Generated_Source\PSoC5/nRF24_HAL.c **** #endif
  23:Generated_Source\PSoC5/nRF24_HAL.c **** 
  24:Generated_Source\PSoC5/nRF24_HAL.c **** static void nRF24_spi_clear_fifo(void);
  25:Generated_Source\PSoC5/nRF24_HAL.c **** 
  26:Generated_Source\PSoC5/nRF24_HAL.c **** nrf_spi_xfer nRF24_spi_xfer = nRF24_default_spi_xfer;
  27:Generated_Source\PSoC5/nRF24_HAL.c **** 
  28:Generated_Source\PSoC5/nRF24_HAL.c **** void nRF24_register_spi_xfer(nrf_spi_xfer new_spi_xfer)
  29:Generated_Source\PSoC5/nRF24_HAL.c **** {
  30:Generated_Source\PSoC5/nRF24_HAL.c ****     nRF24_spi_xfer = new_spi_xfer;
  31:Generated_Source\PSoC5/nRF24_HAL.c **** }
ARM GAS  C:\Users\USER\AppData\Local\Temp\cc6144Da.s 			page 2


  32:Generated_Source\PSoC5/nRF24_HAL.c **** 
  33:Generated_Source\PSoC5/nRF24_HAL.c **** // xfer xfer_size bytes to the nrf24 radio and get back xfer_size bytes back
  34:Generated_Source\PSoC5/nRF24_HAL.c **** // from it.
  35:Generated_Source\PSoC5/nRF24_HAL.c **** // in[0] is always the NRF_COMMAND
  36:Generated_Source\PSoC5/nRF24_HAL.c **** // out[0] is always the STATUS_REGISTER
  37:Generated_Source\PSoC5/nRF24_HAL.c **** //
  38:Generated_Source\PSoC5/nRF24_HAL.c **** // Example of use:
  39:Generated_Source\PSoC5/nRF24_HAL.c **** // - To read the radio status register and save it in status_reg variable:
  40:Generated_Source\PSoC5/nRF24_HAL.c **** //
  41:Generated_Source\PSoC5/nRF24_HAL.c **** // uint8_t NRF_DUMMY = 0xFF;
  42:Generated_Source\PSoC5/nRF24_HAL.c **** // uint8_t status_reg = 0;
  43:Generated_Source\PSoC5/nRF24_HAL.c **** // nrf24_spi_xfer(&NRF_DUMMY, &status_reg, 1);
  44:Generated_Source\PSoC5/nRF24_HAL.c **** void nRF24_default_spi_xfer(const uint8_t *in, uint8_t *out, const size_t xfer_size)
  45:Generated_Source\PSoC5/nRF24_HAL.c **** {
  46:Generated_Source\PSoC5/nRF24_HAL.c ****     nRF24_spi_clear_fifo();
  47:Generated_Source\PSoC5/nRF24_HAL.c **** 
  48:Generated_Source\PSoC5/nRF24_HAL.c ****     nRF24_ss_write(GPIO_CLEAR);
  49:Generated_Source\PSoC5/nRF24_HAL.c **** 
  50:Generated_Source\PSoC5/nRF24_HAL.c **** #if defined (_PSOC6)
  51:Generated_Source\PSoC5/nRF24_HAL.c ****     for(size_t i = 0; i < xfer_size; i++){
  52:Generated_Source\PSoC5/nRF24_HAL.c ****         while(Cy_SCB_Write(SPI_HW, in[i]) == 0);
  53:Generated_Source\PSoC5/nRF24_HAL.c ****         while (Cy_SCB_GetNumInRxFifo(SPI_HW) == 0) {}
  54:Generated_Source\PSoC5/nRF24_HAL.c ****         out[i] = Cy_SCB_ReadRxFifo(SPI_HW);
  55:Generated_Source\PSoC5/nRF24_HAL.c ****     }
  56:Generated_Source\PSoC5/nRF24_HAL.c **** #elif defined (_PSOC4_SCB)
  57:Generated_Source\PSoC5/nRF24_HAL.c ****     for (size_t i = 0; i < xfer_size; i++) {
  58:Generated_Source\PSoC5/nRF24_HAL.c ****         SPI_SpiUartWriteTxData(in[i]);
  59:Generated_Source\PSoC5/nRF24_HAL.c ****         while (SPI_SpiUartGetRxBufferSize() == 0){}
  60:Generated_Source\PSoC5/nRF24_HAL.c ****         out[i] = SPI_SpiUartReadRxData();
  61:Generated_Source\PSoC5/nRF24_HAL.c ****     }
  62:Generated_Source\PSoC5/nRF24_HAL.c **** #elif defined (_PSOC_UDB)
  63:Generated_Source\PSoC5/nRF24_HAL.c ****     for (size_t i = 0; i < xfer_size; i++) {
  64:Generated_Source\PSoC5/nRF24_HAL.c ****         SPI_WriteTxData(in[i]);
  65:Generated_Source\PSoC5/nRF24_HAL.c ****         while (!(SPI_ReadTxStatus() & SPI_STS_BYTE_COMPLETE)) {
  66:Generated_Source\PSoC5/nRF24_HAL.c ****         }
  67:Generated_Source\PSoC5/nRF24_HAL.c ****         out[i] = SPI_ReadRxData();
  68:Generated_Source\PSoC5/nRF24_HAL.c ****     }
  69:Generated_Source\PSoC5/nRF24_HAL.c **** #else
  70:Generated_Source\PSoC5/nRF24_HAL.c ****     #error "Non valid PSoC device identified."
  71:Generated_Source\PSoC5/nRF24_HAL.c **** #endif
  72:Generated_Source\PSoC5/nRF24_HAL.c **** 
  73:Generated_Source\PSoC5/nRF24_HAL.c ****     nRF24_ss_write(GPIO_SET);
  74:Generated_Source\PSoC5/nRF24_HAL.c **** }
  75:Generated_Source\PSoC5/nRF24_HAL.c **** 
  76:Generated_Source\PSoC5/nRF24_HAL.c **** /**
  77:Generated_Source\PSoC5/nRF24_HAL.c ****  * Read the specified nRF24 register (bigger than 1 byte).
  78:Generated_Source\PSoC5/nRF24_HAL.c ****  *
  79:Generated_Source\PSoC5/nRF24_HAL.c ****  * @param[in]   reg: Register to be read, see @nrf_register.
  80:Generated_Source\PSoC5/nRF24_HAL.c ****  * @param[out]  data: Where the content of the register will be stored.
  81:Generated_Source\PSoC5/nRF24_HAL.c ****  * @param[int]  data_size: Size (in bytes) of the register and data.
  82:Generated_Source\PSoC5/nRF24_HAL.c ****  *
  83:Generated_Source\PSoC5/nRF24_HAL.c ****  * @return      status register.
  84:Generated_Source\PSoC5/nRF24_HAL.c ****  */
  85:Generated_Source\PSoC5/nRF24_HAL.c **** uint8_t nRF24_read_reg(const nrf_register reg,
  86:Generated_Source\PSoC5/nRF24_HAL.c ****     uint8_t *data, const size_t data_size)
  87:Generated_Source\PSoC5/nRF24_HAL.c **** {
  88:Generated_Source\PSoC5/nRF24_HAL.c ****     uint8_t data_out[data_size + 1];
ARM GAS  C:\Users\USER\AppData\Local\Temp\cc6144Da.s 			page 3


  89:Generated_Source\PSoC5/nRF24_HAL.c ****     uint8_t data_in[data_size + 1];
  90:Generated_Source\PSoC5/nRF24_HAL.c ****     
  91:Generated_Source\PSoC5/nRF24_HAL.c ****     data_in[0] = NRF_CMD_R_REGISTER | reg;
  92:Generated_Source\PSoC5/nRF24_HAL.c ****     nRF24_spi_xfer(data_in, data_out, sizeof data_in/sizeof *data_in);
  93:Generated_Source\PSoC5/nRF24_HAL.c ****     memcpy(data, &data_out[1], data_size);
  94:Generated_Source\PSoC5/nRF24_HAL.c ****     
  95:Generated_Source\PSoC5/nRF24_HAL.c ****     // Return the NRF_STATUS register.
  96:Generated_Source\PSoC5/nRF24_HAL.c ****     return data_out[0];
  97:Generated_Source\PSoC5/nRF24_HAL.c **** }
  98:Generated_Source\PSoC5/nRF24_HAL.c **** 
  99:Generated_Source\PSoC5/nRF24_HAL.c **** /**
 100:Generated_Source\PSoC5/nRF24_HAL.c ****  * Read the specified nRF24 register (bigger than 1 byte).
 101:Generated_Source\PSoC5/nRF24_HAL.c ****  *
 102:Generated_Source\PSoC5/nRF24_HAL.c ****  * @param[in]   reg: Register to be read, see @nrf_register.
 103:Generated_Source\PSoC5/nRF24_HAL.c ****  * @param[in]   data: Data to be written to the register.
 104:Generated_Source\PSoC5/nRF24_HAL.c ****  * @param[int]  data_size: Size (in bytes) of the register and data.
 105:Generated_Source\PSoC5/nRF24_HAL.c ****  *
 106:Generated_Source\PSoC5/nRF24_HAL.c ****  * @return      status register.
 107:Generated_Source\PSoC5/nRF24_HAL.c ****  */
 108:Generated_Source\PSoC5/nRF24_HAL.c **** uint8_t nRF24_write_reg(const nrf_register reg,
 109:Generated_Source\PSoC5/nRF24_HAL.c ****     const uint8_t *data, const size_t data_size)
 110:Generated_Source\PSoC5/nRF24_HAL.c **** {
 111:Generated_Source\PSoC5/nRF24_HAL.c ****     uint8_t data_out[data_size + 1];
 112:Generated_Source\PSoC5/nRF24_HAL.c ****     uint8_t data_in[data_size + 1];
 113:Generated_Source\PSoC5/nRF24_HAL.c ****     
 114:Generated_Source\PSoC5/nRF24_HAL.c ****     data_in[0] = NRF_CMD_W_REGISTER | reg;
 115:Generated_Source\PSoC5/nRF24_HAL.c ****     memcpy(&data_in[1], data, data_size);
 116:Generated_Source\PSoC5/nRF24_HAL.c **** 
 117:Generated_Source\PSoC5/nRF24_HAL.c ****     nRF24_spi_xfer(data_in, data_out, sizeof data_in/sizeof *data_in);
 118:Generated_Source\PSoC5/nRF24_HAL.c ****     
 119:Generated_Source\PSoC5/nRF24_HAL.c ****     // Return the NRF_STATUS register.
 120:Generated_Source\PSoC5/nRF24_HAL.c ****     return data_out[0];
 121:Generated_Source\PSoC5/nRF24_HAL.c **** }
 122:Generated_Source\PSoC5/nRF24_HAL.c **** 
 123:Generated_Source\PSoC5/nRF24_HAL.c **** /**
 124:Generated_Source\PSoC5/nRF24_HAL.c ****  * Read the specified bit.
 125:Generated_Source\PSoC5/nRF24_HAL.c ****  *
 126:Generated_Source\PSoC5/nRF24_HAL.c ****  * @param[in] reg: Register to be read, see @c nrf_register.
 127:Generated_Source\PSoC5/nRF24_HAL.c ****  * @param[in] bit_pos: Bit position to be read.
 128:Generated_Source\PSoC5/nRF24_HAL.c ****  *
 129:Generated_Source\PSoC5/nRF24_HAL.c ****  * @return bool: Bit value.
 130:Generated_Source\PSoC5/nRF24_HAL.c ****  */
 131:Generated_Source\PSoC5/nRF24_HAL.c **** bool nRF24_read_bit(const nrf_register reg, const uint8_t bit_pos)
 132:Generated_Source\PSoC5/nRF24_HAL.c **** {
 133:Generated_Source\PSoC5/nRF24_HAL.c ****     uint8_t reg_val;
 134:Generated_Source\PSoC5/nRF24_HAL.c ****     nRF24_read_reg(reg, &reg_val, 1);
 135:Generated_Source\PSoC5/nRF24_HAL.c ****     return (reg_val & (1 << bit_pos)) != 0;
 136:Generated_Source\PSoC5/nRF24_HAL.c **** }
 137:Generated_Source\PSoC5/nRF24_HAL.c **** 
 138:Generated_Source\PSoC5/nRF24_HAL.c **** /**
 139:Generated_Source\PSoC5/nRF24_HAL.c ****  * Set (1) or clear (0) the specified bit of the specified nRF24 register.
 140:Generated_Source\PSoC5/nRF24_HAL.c ****  *
 141:Generated_Source\PSoC5/nRF24_HAL.c ****  * First we read the specified register and check the content of the specified
 142:Generated_Source\PSoC5/nRF24_HAL.c ****  * bit, exit early if the bit already is the value we wanted, otherwise we set
 143:Generated_Source\PSoC5/nRF24_HAL.c ****  * the bit to the specified value.
 144:Generated_Source\PSoC5/nRF24_HAL.c ****  *
 145:Generated_Source\PSoC5/nRF24_HAL.c ****  * @param[in] reg: Register to be written, see @c nrf_register.
ARM GAS  C:\Users\USER\AppData\Local\Temp\cc6144Da.s 			page 4


 146:Generated_Source\PSoC5/nRF24_HAL.c ****  * @param[in] bit_pos: Position of the bit to be written.
 147:Generated_Source\PSoC5/nRF24_HAL.c ****  * @param[in] value: Value (1 or 0) to write into the bit.
 148:Generated_Source\PSoC5/nRF24_HAL.c ****  */
 149:Generated_Source\PSoC5/nRF24_HAL.c **** static void nRF24_write_bit(const nrf_register reg,
 150:Generated_Source\PSoC5/nRF24_HAL.c ****                                   const uint8_t bit_pos, const bool value)
 151:Generated_Source\PSoC5/nRF24_HAL.c **** {
 152:Generated_Source\PSoC5/nRF24_HAL.c ****     uint8_t temp;
 153:Generated_Source\PSoC5/nRF24_HAL.c ****     nRF24_read_reg(reg, &temp, 1);
 154:Generated_Source\PSoC5/nRF24_HAL.c ****     
 155:Generated_Source\PSoC5/nRF24_HAL.c ****     const uint8_t bit_mask = 1 << bit_pos;
 156:Generated_Source\PSoC5/nRF24_HAL.c ****     
 157:Generated_Source\PSoC5/nRF24_HAL.c ****     // Read the bit value before writing to it.
 158:Generated_Source\PSoC5/nRF24_HAL.c ****     // Check if the bit is 1
 159:Generated_Source\PSoC5/nRF24_HAL.c ****     if ((temp & bit_mask) != 0) {
 160:Generated_Source\PSoC5/nRF24_HAL.c ****         // it is 1, return if we wanted to set it to 1
 161:Generated_Source\PSoC5/nRF24_HAL.c ****         if (value) {
 162:Generated_Source\PSoC5/nRF24_HAL.c ****             return;
 163:Generated_Source\PSoC5/nRF24_HAL.c ****         }
 164:Generated_Source\PSoC5/nRF24_HAL.c ****     } else { // the bit is 0
 165:Generated_Source\PSoC5/nRF24_HAL.c ****         // it is 0, return if we wanted to set it to 0
 166:Generated_Source\PSoC5/nRF24_HAL.c ****         if (!value) {
 167:Generated_Source\PSoC5/nRF24_HAL.c ****             return;
 168:Generated_Source\PSoC5/nRF24_HAL.c ****         }
 169:Generated_Source\PSoC5/nRF24_HAL.c ****     }
 170:Generated_Source\PSoC5/nRF24_HAL.c **** 
 171:Generated_Source\PSoC5/nRF24_HAL.c ****     // Calculate the new value to be written into the register
 172:Generated_Source\PSoC5/nRF24_HAL.c ****     temp = value ? temp | bit_mask : temp & ~bit_mask;
 173:Generated_Source\PSoC5/nRF24_HAL.c **** 
 174:Generated_Source\PSoC5/nRF24_HAL.c ****     nRF24_write_reg(reg, &temp, 1);
 175:Generated_Source\PSoC5/nRF24_HAL.c **** }
 176:Generated_Source\PSoC5/nRF24_HAL.c **** 
 177:Generated_Source\PSoC5/nRF24_HAL.c **** /**
 178:Generated_Source\PSoC5/nRF24_HAL.c ****  * Set to 0 the specified bit of the specified nRF24 register.
 179:Generated_Source\PSoC5/nRF24_HAL.c ****  *
 180:Generated_Source\PSoC5/nRF24_HAL.c ****  * @param[in]   reg: Register to be written, see @c nrf_register.
 181:Generated_Source\PSoC5/nRF24_HAL.c ****  * @param[in]   bit_pos: Position of the bit to be written.
 182:Generated_Source\PSoC5/nRF24_HAL.c ****  */
 183:Generated_Source\PSoC5/nRF24_HAL.c **** void nRF24_clear_bit(const nrf_register reg, const uint8_t bit_pos)
 184:Generated_Source\PSoC5/nRF24_HAL.c **** {
 185:Generated_Source\PSoC5/nRF24_HAL.c ****     if (8 < bit_pos) {
 186:Generated_Source\PSoC5/nRF24_HAL.c ****         return;
 187:Generated_Source\PSoC5/nRF24_HAL.c ****     }
 188:Generated_Source\PSoC5/nRF24_HAL.c **** 
 189:Generated_Source\PSoC5/nRF24_HAL.c ****     nRF24_write_bit(reg, bit_pos, 0);
 190:Generated_Source\PSoC5/nRF24_HAL.c **** }
 191:Generated_Source\PSoC5/nRF24_HAL.c **** 
 192:Generated_Source\PSoC5/nRF24_HAL.c **** /**
 193:Generated_Source\PSoC5/nRF24_HAL.c ****  * Set to 1 the specified bit of the specified nRF24 register.
 194:Generated_Source\PSoC5/nRF24_HAL.c ****  *
 195:Generated_Source\PSoC5/nRF24_HAL.c ****  * @param[in]   reg: Register to be written, see @c nrf_register.
 196:Generated_Source\PSoC5/nRF24_HAL.c ****  * @param[in]   bit_pos: Position of the bit to be written.
 197:Generated_Source\PSoC5/nRF24_HAL.c ****  */
 198:Generated_Source\PSoC5/nRF24_HAL.c **** void nRF24_set_bit(const nrf_register reg, const uint8_t bit_pos)
 199:Generated_Source\PSoC5/nRF24_HAL.c **** {
 200:Generated_Source\PSoC5/nRF24_HAL.c ****     if (8 < bit_pos) {
 201:Generated_Source\PSoC5/nRF24_HAL.c ****         return;
 202:Generated_Source\PSoC5/nRF24_HAL.c ****     }
ARM GAS  C:\Users\USER\AppData\Local\Temp\cc6144Da.s 			page 5


 203:Generated_Source\PSoC5/nRF24_HAL.c **** 
 204:Generated_Source\PSoC5/nRF24_HAL.c ****     nRF24_write_bit(reg, bit_pos, 1);
 205:Generated_Source\PSoC5/nRF24_HAL.c **** }
 206:Generated_Source\PSoC5/nRF24_HAL.c **** 
 207:Generated_Source\PSoC5/nRF24_HAL.c **** /* GPIO Control */
 208:Generated_Source\PSoC5/nRF24_HAL.c **** 
 209:Generated_Source\PSoC5/nRF24_HAL.c **** /**
 210:Generated_Source\PSoC5/nRF24_HAL.c ****  * GPIO control in PSoC6 and PSoC4/PSoC5LP is a little bit different,
 211:Generated_Source\PSoC5/nRF24_HAL.c ****  * so here we try to unify them.
 212:Generated_Source\PSoC5/nRF24_HAL.c ****  *
 213:Generated_Source\PSoC5/nRF24_HAL.c ****  * @param[in] nrf_gpio state 
 214:Generated_Source\PSoC5/nRF24_HAL.c ****  */
 215:Generated_Source\PSoC5/nRF24_HAL.c **** void nRF24_ss_write(gpio_state state)
 216:Generated_Source\PSoC5/nRF24_HAL.c **** {
 217:Generated_Source\PSoC5/nRF24_HAL.c ****     if (GPIO_CLEAR == state) {
 218:Generated_Source\PSoC5/nRF24_HAL.c **** #if defined (_PSOC6)
 219:Generated_Source\PSoC5/nRF24_HAL.c ****     Cy_GPIO_Clr(SS_PORT, SS_NUM);
 220:Generated_Source\PSoC5/nRF24_HAL.c **** #else // _PSoC4_SCB | _PSOC_UDB
 221:Generated_Source\PSoC5/nRF24_HAL.c ****     SS_Write(0);
 222:Generated_Source\PSoC5/nRF24_HAL.c **** #endif
 223:Generated_Source\PSoC5/nRF24_HAL.c ****     } else { // GPIO_SET
 224:Generated_Source\PSoC5/nRF24_HAL.c **** #if defined (_PSOC6)
 225:Generated_Source\PSoC5/nRF24_HAL.c ****     Cy_GPIO_Set(SS_PORT, SS_NUM);
 226:Generated_Source\PSoC5/nRF24_HAL.c **** #else // _PSoC4_SCB | _PSOC_UDB
 227:Generated_Source\PSoC5/nRF24_HAL.c ****     SS_Write(1);
 228:Generated_Source\PSoC5/nRF24_HAL.c **** #endif
 229:Generated_Source\PSoC5/nRF24_HAL.c ****     }
 230:Generated_Source\PSoC5/nRF24_HAL.c **** }
 231:Generated_Source\PSoC5/nRF24_HAL.c **** 
 232:Generated_Source\PSoC5/nRF24_HAL.c **** void nRF24_ce_write(gpio_state state)
 233:Generated_Source\PSoC5/nRF24_HAL.c **** {
 234:Generated_Source\PSoC5/nRF24_HAL.c ****     if (GPIO_CLEAR == state) {
 235:Generated_Source\PSoC5/nRF24_HAL.c **** #if defined (_PSOC6)
 236:Generated_Source\PSoC5/nRF24_HAL.c ****     Cy_GPIO_Clr(CE_PORT, CE_NUM);
 237:Generated_Source\PSoC5/nRF24_HAL.c **** #else // _PSoC4_SCB | _PSOC_UDB
 238:Generated_Source\PSoC5/nRF24_HAL.c ****     CE_Write(0);
 239:Generated_Source\PSoC5/nRF24_HAL.c **** #endif
 240:Generated_Source\PSoC5/nRF24_HAL.c ****     } else { // GPIO_SET
 241:Generated_Source\PSoC5/nRF24_HAL.c **** #if defined (_PSOC6)
 242:Generated_Source\PSoC5/nRF24_HAL.c ****     Cy_GPIO_Set(CE_PORT, CE_NUM);
 243:Generated_Source\PSoC5/nRF24_HAL.c **** #else // _PSoC4_SCB | _PSOC_UDB
 244:Generated_Source\PSoC5/nRF24_HAL.c ****     CE_Write(1);
 245:Generated_Source\PSoC5/nRF24_HAL.c **** #endif
 246:Generated_Source\PSoC5/nRF24_HAL.c ****     }
 247:Generated_Source\PSoC5/nRF24_HAL.c **** }
 248:Generated_Source\PSoC5/nRF24_HAL.c **** 
 249:Generated_Source\PSoC5/nRF24_HAL.c **** static void nRF24_spi_clear_fifo(void)
 250:Generated_Source\PSoC5/nRF24_HAL.c **** {
  27              		.loc 1 250 0
  28              		.cfi_startproc
  29              		@ args = 0, pretend = 0, frame = 0
  30              		@ frame_needed = 0, uses_anonymous_args = 0
  31 0000 08B5     		push	{r3, lr}
  32              		.cfi_def_cfa_offset 8
  33              		.cfi_offset 3, -8
  34              		.cfi_offset 14, -4
 251:Generated_Source\PSoC5/nRF24_HAL.c **** #if defined (_PSOC6)
ARM GAS  C:\Users\USER\AppData\Local\Temp\cc6144Da.s 			page 6


 252:Generated_Source\PSoC5/nRF24_HAL.c ****     Cy_SCB_ClearRxFifo(SPI_HW);
 253:Generated_Source\PSoC5/nRF24_HAL.c ****     Cy_SCB_ClearTxFifo(SPI_HW);
 254:Generated_Source\PSoC5/nRF24_HAL.c **** #elif defined (_PSOC4_SCB)
 255:Generated_Source\PSoC5/nRF24_HAL.c ****     SPI_SpiUartClearRxBuffer();
 256:Generated_Source\PSoC5/nRF24_HAL.c ****     SPI_SpiUartClearTxBuffer();
 257:Generated_Source\PSoC5/nRF24_HAL.c **** #elif defined (_PSOC_UDB)
 258:Generated_Source\PSoC5/nRF24_HAL.c ****     SPI_ClearFIFO();
  35              		.loc 1 258 0
  36 0002 FFF7FEFF 		bl	SPI_ClearFIFO
  37              	.LVL0:
  38 0006 08BD     		pop	{r3, pc}
  39              		.cfi_endproc
  40              	.LFE10:
  41              		.size	nRF24_spi_clear_fifo, .-nRF24_spi_clear_fifo
  42              		.section	.text.nRF24_register_spi_xfer,"ax",%progbits
  43              		.align	2
  44              		.global	nRF24_register_spi_xfer
  45              		.thumb
  46              		.thumb_func
  47              		.type	nRF24_register_spi_xfer, %function
  48              	nRF24_register_spi_xfer:
  49              	.LFB0:
  29:Generated_Source\PSoC5/nRF24_HAL.c ****     nRF24_spi_xfer = new_spi_xfer;
  50              		.loc 1 29 0
  51              		.cfi_startproc
  52              		@ args = 0, pretend = 0, frame = 0
  53              		@ frame_needed = 0, uses_anonymous_args = 0
  54              		@ link register save eliminated.
  55              	.LVL1:
  30:Generated_Source\PSoC5/nRF24_HAL.c **** }
  56              		.loc 1 30 0
  57 0000 014B     		ldr	r3, .L4
  58 0002 1860     		str	r0, [r3]
  59 0004 7047     		bx	lr
  60              	.L5:
  61 0006 00BF     		.align	2
  62              	.L4:
  63 0008 00000000 		.word	.LANCHOR0
  64              		.cfi_endproc
  65              	.LFE0:
  66              		.size	nRF24_register_spi_xfer, .-nRF24_register_spi_xfer
  67              		.section	.text.nRF24_read_reg,"ax",%progbits
  68              		.align	2
  69              		.global	nRF24_read_reg
  70              		.thumb
  71              		.thumb_func
  72              		.type	nRF24_read_reg, %function
  73              	nRF24_read_reg:
  74              	.LFB2:
  87:Generated_Source\PSoC5/nRF24_HAL.c ****     uint8_t data_out[data_size + 1];
  75              		.loc 1 87 0
  76              		.cfi_startproc
  77              		@ args = 0, pretend = 0, frame = 0
  78              		@ frame_needed = 1, uses_anonymous_args = 0
  79              	.LVL2:
  80 0000 F8B5     		push	{r3, r4, r5, r6, r7, lr}
  81              		.cfi_def_cfa_offset 24
ARM GAS  C:\Users\USER\AppData\Local\Temp\cc6144Da.s 			page 7


  82              		.cfi_offset 3, -24
  83              		.cfi_offset 4, -20
  84              		.cfi_offset 5, -16
  85              		.cfi_offset 6, -12
  86              		.cfi_offset 7, -8
  87              		.cfi_offset 14, -4
  88 0002 00AF     		add	r7, sp, #0
  89              		.cfi_def_cfa_register 7
  90 0004 0E46     		mov	r6, r1
  91 0006 1546     		mov	r5, r2
  88:Generated_Source\PSoC5/nRF24_HAL.c ****     uint8_t data_in[data_size + 1];
  92              		.loc 1 88 0
  93 0008 02F10803 		add	r3, r2, #8
  94 000c 23F00703 		bic	r3, r3, #7
  95 0010 ADEB030D 		sub	sp, sp, r3
  96 0014 6C46     		mov	r4, sp
  97              	.LVL3:
  89:Generated_Source\PSoC5/nRF24_HAL.c ****     
  98              		.loc 1 89 0
  99 0016 ADEB030D 		sub	sp, sp, r3
 100              	.LVL4:
  91:Generated_Source\PSoC5/nRF24_HAL.c ****     nRF24_spi_xfer(data_in, data_out, sizeof data_in/sizeof *data_in);
 101              		.loc 1 91 0
 102 001a 8DF80000 		strb	r0, [sp]
  92:Generated_Source\PSoC5/nRF24_HAL.c ****     memcpy(data, &data_out[1], data_size);
 103              		.loc 1 92 0
 104 001e 074B     		ldr	r3, .L8
 105 0020 1B68     		ldr	r3, [r3]
 106 0022 0132     		adds	r2, r2, #1
 107              	.LVL5:
 108 0024 2146     		mov	r1, r4
 109              	.LVL6:
 110 0026 6846     		mov	r0, sp
 111              	.LVL7:
 112 0028 9847     		blx	r3
 113              	.LVL8:
  93:Generated_Source\PSoC5/nRF24_HAL.c ****     
 114              		.loc 1 93 0
 115 002a 2A46     		mov	r2, r5
 116 002c 611C     		adds	r1, r4, #1
 117 002e 3046     		mov	r0, r6
 118 0030 FFF7FEFF 		bl	memcpy
 119              	.LVL9:
  97:Generated_Source\PSoC5/nRF24_HAL.c **** 
 120              		.loc 1 97 0
 121 0034 2078     		ldrb	r0, [r4]	@ zero_extendqisi2
 122 0036 BD46     		mov	sp, r7
 123              		.cfi_def_cfa_register 13
 124              	.LVL10:
 125              		@ sp needed
 126 0038 F8BD     		pop	{r3, r4, r5, r6, r7, pc}
 127              	.LVL11:
 128              	.L9:
 129 003a 00BF     		.align	2
 130              	.L8:
 131 003c 00000000 		.word	.LANCHOR0
 132              		.cfi_endproc
ARM GAS  C:\Users\USER\AppData\Local\Temp\cc6144Da.s 			page 8


 133              	.LFE2:
 134              		.size	nRF24_read_reg, .-nRF24_read_reg
 135              		.section	.text.nRF24_write_reg,"ax",%progbits
 136              		.align	2
 137              		.global	nRF24_write_reg
 138              		.thumb
 139              		.thumb_func
 140              		.type	nRF24_write_reg, %function
 141              	nRF24_write_reg:
 142              	.LFB3:
 110:Generated_Source\PSoC5/nRF24_HAL.c ****     uint8_t data_out[data_size + 1];
 143              		.loc 1 110 0
 144              		.cfi_startproc
 145              		@ args = 0, pretend = 0, frame = 0
 146              		@ frame_needed = 1, uses_anonymous_args = 0
 147              	.LVL12:
 148 0000 B0B5     		push	{r4, r5, r7, lr}
 149              		.cfi_def_cfa_offset 16
 150              		.cfi_offset 4, -16
 151              		.cfi_offset 5, -12
 152              		.cfi_offset 7, -8
 153              		.cfi_offset 14, -4
 154 0002 00AF     		add	r7, sp, #0
 155              		.cfi_def_cfa_register 7
 156 0004 1346     		mov	r3, r2
 111:Generated_Source\PSoC5/nRF24_HAL.c ****     uint8_t data_in[data_size + 1];
 157              		.loc 1 111 0
 158 0006 551C     		adds	r5, r2, #1
 159 0008 0833     		adds	r3, r3, #8
 160 000a 23F00703 		bic	r3, r3, #7
 161 000e ADEB030D 		sub	sp, sp, r3
 162 0012 6C46     		mov	r4, sp
 163              	.LVL13:
 112:Generated_Source\PSoC5/nRF24_HAL.c ****     
 164              		.loc 1 112 0
 165 0014 ADEB030D 		sub	sp, sp, r3
 166              	.LVL14:
 114:Generated_Source\PSoC5/nRF24_HAL.c ****     memcpy(&data_in[1], data, data_size);
 167              		.loc 1 114 0
 168 0018 40F02003 		orr	r3, r0, #32
 169 001c 6846     		mov	r0, sp
 170              	.LVL15:
 171 001e 00F8013B 		strb	r3, [r0], #1
 115:Generated_Source\PSoC5/nRF24_HAL.c **** 
 172              		.loc 1 115 0
 173 0022 FFF7FEFF 		bl	memcpy
 174              	.LVL16:
 117:Generated_Source\PSoC5/nRF24_HAL.c ****     
 175              		.loc 1 117 0
 176 0026 044B     		ldr	r3, .L12
 177 0028 1B68     		ldr	r3, [r3]
 178 002a 2A46     		mov	r2, r5
 179 002c 2146     		mov	r1, r4
 180 002e 6846     		mov	r0, sp
 181 0030 9847     		blx	r3
 182              	.LVL17:
 121:Generated_Source\PSoC5/nRF24_HAL.c **** 
ARM GAS  C:\Users\USER\AppData\Local\Temp\cc6144Da.s 			page 9


 183              		.loc 1 121 0
 184 0032 2078     		ldrb	r0, [r4]	@ zero_extendqisi2
 185 0034 BD46     		mov	sp, r7
 186              		.cfi_def_cfa_register 13
 187              	.LVL18:
 188              		@ sp needed
 189 0036 B0BD     		pop	{r4, r5, r7, pc}
 190              	.LVL19:
 191              	.L13:
 192              		.align	2
 193              	.L12:
 194 0038 00000000 		.word	.LANCHOR0
 195              		.cfi_endproc
 196              	.LFE3:
 197              		.size	nRF24_write_reg, .-nRF24_write_reg
 198              		.section	.text.nRF24_write_bit,"ax",%progbits
 199              		.align	2
 200              		.thumb
 201              		.thumb_func
 202              		.type	nRF24_write_bit, %function
 203              	nRF24_write_bit:
 204              	.LFB5:
 151:Generated_Source\PSoC5/nRF24_HAL.c ****     uint8_t temp;
 205              		.loc 1 151 0
 206              		.cfi_startproc
 207              		@ args = 0, pretend = 0, frame = 8
 208              		@ frame_needed = 0, uses_anonymous_args = 0
 209              	.LVL20:
 210 0000 70B5     		push	{r4, r5, r6, lr}
 211              		.cfi_def_cfa_offset 16
 212              		.cfi_offset 4, -16
 213              		.cfi_offset 5, -12
 214              		.cfi_offset 6, -8
 215              		.cfi_offset 14, -4
 216 0002 82B0     		sub	sp, sp, #8
 217              		.cfi_def_cfa_offset 24
 218 0004 0546     		mov	r5, r0
 219 0006 0E46     		mov	r6, r1
 220 0008 1446     		mov	r4, r2
 153:Generated_Source\PSoC5/nRF24_HAL.c ****     
 221              		.loc 1 153 0
 222 000a 0122     		movs	r2, #1
 223              	.LVL21:
 224 000c 0DF10701 		add	r1, sp, #7
 225              	.LVL22:
 226 0010 FFF7FEFF 		bl	nRF24_read_reg
 227              	.LVL23:
 155:Generated_Source\PSoC5/nRF24_HAL.c ****     
 228              		.loc 1 155 0
 229 0014 0121     		movs	r1, #1
 230 0016 B140     		lsls	r1, r1, r6
 231 0018 CAB2     		uxtb	r2, r1
 232              	.LVL24:
 159:Generated_Source\PSoC5/nRF24_HAL.c ****         // it is 1, return if we wanted to set it to 1
 233              		.loc 1 159 0
 234 001a 9DF80730 		ldrb	r3, [sp, #7]	@ zero_extendqisi2
 235 001e 1A42     		tst	r2, r3
ARM GAS  C:\Users\USER\AppData\Local\Temp\cc6144Da.s 			page 10


 236 0020 01D0     		beq	.L15
 161:Generated_Source\PSoC5/nRF24_HAL.c ****             return;
 237              		.loc 1 161 0
 238 0022 6CB9     		cbnz	r4, .L14
 239 0024 00E0     		b	.L17
 240              	.L15:
 166:Generated_Source\PSoC5/nRF24_HAL.c ****             return;
 241              		.loc 1 166 0
 242 0026 5CB1     		cbz	r4, .L14
 243              	.L17:
 172:Generated_Source\PSoC5/nRF24_HAL.c **** 
 244              		.loc 1 172 0
 245 0028 0CB1     		cbz	r4, .L18
 172:Generated_Source\PSoC5/nRF24_HAL.c **** 
 246              		.loc 1 172 0 is_stmt 0 discriminator 1
 247 002a 1343     		orrs	r3, r3, r2
 248 002c 01E0     		b	.L19
 249              	.L18:
 172:Generated_Source\PSoC5/nRF24_HAL.c **** 
 250              		.loc 1 172 0 discriminator 2
 251 002e 23EA0103 		bic	r3, r3, r1
 252              	.L19:
 172:Generated_Source\PSoC5/nRF24_HAL.c **** 
 253              		.loc 1 172 0 discriminator 4
 254 0032 02A9     		add	r1, sp, #8
 255 0034 01F8013D 		strb	r3, [r1, #-1]!
 174:Generated_Source\PSoC5/nRF24_HAL.c **** }
 256              		.loc 1 174 0 is_stmt 1 discriminator 4
 257 0038 0122     		movs	r2, #1
 258              	.LVL25:
 259 003a 2846     		mov	r0, r5
 260 003c FFF7FEFF 		bl	nRF24_write_reg
 261              	.LVL26:
 262              	.L14:
 175:Generated_Source\PSoC5/nRF24_HAL.c **** 
 263              		.loc 1 175 0
 264 0040 02B0     		add	sp, sp, #8
 265              		.cfi_def_cfa_offset 16
 266              		@ sp needed
 267 0042 70BD     		pop	{r4, r5, r6, pc}
 268              		.cfi_endproc
 269              	.LFE5:
 270              		.size	nRF24_write_bit, .-nRF24_write_bit
 271              		.section	.text.nRF24_read_bit,"ax",%progbits
 272              		.align	2
 273              		.global	nRF24_read_bit
 274              		.thumb
 275              		.thumb_func
 276              		.type	nRF24_read_bit, %function
 277              	nRF24_read_bit:
 278              	.LFB4:
 132:Generated_Source\PSoC5/nRF24_HAL.c ****     uint8_t reg_val;
 279              		.loc 1 132 0
 280              		.cfi_startproc
 281              		@ args = 0, pretend = 0, frame = 8
 282              		@ frame_needed = 0, uses_anonymous_args = 0
 283              	.LVL27:
ARM GAS  C:\Users\USER\AppData\Local\Temp\cc6144Da.s 			page 11


 284 0000 10B5     		push	{r4, lr}
 285              		.cfi_def_cfa_offset 8
 286              		.cfi_offset 4, -8
 287              		.cfi_offset 14, -4
 288 0002 82B0     		sub	sp, sp, #8
 289              		.cfi_def_cfa_offset 16
 290 0004 0C46     		mov	r4, r1
 134:Generated_Source\PSoC5/nRF24_HAL.c ****     return (reg_val & (1 << bit_pos)) != 0;
 291              		.loc 1 134 0
 292 0006 0122     		movs	r2, #1
 293 0008 0DF10701 		add	r1, sp, #7
 294              	.LVL28:
 295 000c FFF7FEFF 		bl	nRF24_read_reg
 296              	.LVL29:
 135:Generated_Source\PSoC5/nRF24_HAL.c **** }
 297              		.loc 1 135 0
 298 0010 9DF80700 		ldrb	r0, [sp, #7]	@ zero_extendqisi2
 299 0014 2041     		asrs	r0, r0, r4
 300 0016 00F00100 		and	r0, r0, #1
 136:Generated_Source\PSoC5/nRF24_HAL.c **** 
 301              		.loc 1 136 0
 302 001a 02B0     		add	sp, sp, #8
 303              		.cfi_def_cfa_offset 8
 304              		@ sp needed
 305 001c 10BD     		pop	{r4, pc}
 306              		.cfi_endproc
 307              	.LFE4:
 308              		.size	nRF24_read_bit, .-nRF24_read_bit
 309 001e 00BF     		.section	.text.nRF24_clear_bit,"ax",%progbits
 310              		.align	2
 311              		.global	nRF24_clear_bit
 312              		.thumb
 313              		.thumb_func
 314              		.type	nRF24_clear_bit, %function
 315              	nRF24_clear_bit:
 316              	.LFB6:
 184:Generated_Source\PSoC5/nRF24_HAL.c ****     if (8 < bit_pos) {
 317              		.loc 1 184 0
 318              		.cfi_startproc
 319              		@ args = 0, pretend = 0, frame = 0
 320              		@ frame_needed = 0, uses_anonymous_args = 0
 321              	.LVL30:
 185:Generated_Source\PSoC5/nRF24_HAL.c ****         return;
 322              		.loc 1 185 0
 323 0000 0829     		cmp	r1, #8
 324 0002 04D8     		bhi	.L27
 184:Generated_Source\PSoC5/nRF24_HAL.c ****     if (8 < bit_pos) {
 325              		.loc 1 184 0
 326 0004 08B5     		push	{r3, lr}
 327              		.cfi_def_cfa_offset 8
 328              		.cfi_offset 3, -8
 329              		.cfi_offset 14, -4
 189:Generated_Source\PSoC5/nRF24_HAL.c **** }
 330              		.loc 1 189 0
 331 0006 0022     		movs	r2, #0
 332 0008 FFF7FEFF 		bl	nRF24_write_bit
 333              	.LVL31:
ARM GAS  C:\Users\USER\AppData\Local\Temp\cc6144Da.s 			page 12


 334 000c 08BD     		pop	{r3, pc}
 335              	.LVL32:
 336              	.L27:
 337              		.cfi_def_cfa_offset 0
 338              		.cfi_restore 3
 339              		.cfi_restore 14
 340 000e 7047     		bx	lr
 341              		.cfi_endproc
 342              	.LFE6:
 343              		.size	nRF24_clear_bit, .-nRF24_clear_bit
 344              		.section	.text.nRF24_set_bit,"ax",%progbits
 345              		.align	2
 346              		.global	nRF24_set_bit
 347              		.thumb
 348              		.thumb_func
 349              		.type	nRF24_set_bit, %function
 350              	nRF24_set_bit:
 351              	.LFB7:
 199:Generated_Source\PSoC5/nRF24_HAL.c ****     if (8 < bit_pos) {
 352              		.loc 1 199 0
 353              		.cfi_startproc
 354              		@ args = 0, pretend = 0, frame = 0
 355              		@ frame_needed = 0, uses_anonymous_args = 0
 356              	.LVL33:
 200:Generated_Source\PSoC5/nRF24_HAL.c ****         return;
 357              		.loc 1 200 0
 358 0000 0829     		cmp	r1, #8
 359 0002 04D8     		bhi	.L31
 199:Generated_Source\PSoC5/nRF24_HAL.c ****     if (8 < bit_pos) {
 360              		.loc 1 199 0
 361 0004 08B5     		push	{r3, lr}
 362              		.cfi_def_cfa_offset 8
 363              		.cfi_offset 3, -8
 364              		.cfi_offset 14, -4
 204:Generated_Source\PSoC5/nRF24_HAL.c **** }
 365              		.loc 1 204 0
 366 0006 0122     		movs	r2, #1
 367 0008 FFF7FEFF 		bl	nRF24_write_bit
 368              	.LVL34:
 369 000c 08BD     		pop	{r3, pc}
 370              	.LVL35:
 371              	.L31:
 372              		.cfi_def_cfa_offset 0
 373              		.cfi_restore 3
 374              		.cfi_restore 14
 375 000e 7047     		bx	lr
 376              		.cfi_endproc
 377              	.LFE7:
 378              		.size	nRF24_set_bit, .-nRF24_set_bit
 379              		.section	.text.nRF24_ss_write,"ax",%progbits
 380              		.align	2
 381              		.global	nRF24_ss_write
 382              		.thumb
 383              		.thumb_func
 384              		.type	nRF24_ss_write, %function
 385              	nRF24_ss_write:
 386              	.LFB8:
ARM GAS  C:\Users\USER\AppData\Local\Temp\cc6144Da.s 			page 13


 216:Generated_Source\PSoC5/nRF24_HAL.c ****     if (GPIO_CLEAR == state) {
 387              		.loc 1 216 0
 388              		.cfi_startproc
 389              		@ args = 0, pretend = 0, frame = 0
 390              		@ frame_needed = 0, uses_anonymous_args = 0
 391              	.LVL36:
 392 0000 08B5     		push	{r3, lr}
 393              		.cfi_def_cfa_offset 8
 394              		.cfi_offset 3, -8
 395              		.cfi_offset 14, -4
 217:Generated_Source\PSoC5/nRF24_HAL.c **** #if defined (_PSOC6)
 396              		.loc 1 217 0
 397 0002 10B9     		cbnz	r0, .L33
 221:Generated_Source\PSoC5/nRF24_HAL.c **** #endif
 398              		.loc 1 221 0
 399 0004 FFF7FEFF 		bl	SS_Write
 400              	.LVL37:
 401 0008 08BD     		pop	{r3, pc}
 402              	.LVL38:
 403              	.L33:
 227:Generated_Source\PSoC5/nRF24_HAL.c **** #endif
 404              		.loc 1 227 0
 405 000a 0120     		movs	r0, #1
 406              	.LVL39:
 407 000c FFF7FEFF 		bl	SS_Write
 408              	.LVL40:
 409 0010 08BD     		pop	{r3, pc}
 410              		.cfi_endproc
 411              	.LFE8:
 412              		.size	nRF24_ss_write, .-nRF24_ss_write
 413 0012 00BF     		.section	.text.nRF24_default_spi_xfer,"ax",%progbits
 414              		.align	2
 415              		.global	nRF24_default_spi_xfer
 416              		.thumb
 417              		.thumb_func
 418              		.type	nRF24_default_spi_xfer, %function
 419              	nRF24_default_spi_xfer:
 420              	.LFB1:
  45:Generated_Source\PSoC5/nRF24_HAL.c ****     nRF24_spi_clear_fifo();
 421              		.loc 1 45 0
 422              		.cfi_startproc
 423              		@ args = 0, pretend = 0, frame = 0
 424              		@ frame_needed = 0, uses_anonymous_args = 0
 425              	.LVL41:
 426 0000 F8B5     		push	{r3, r4, r5, r6, r7, lr}
 427              		.cfi_def_cfa_offset 24
 428              		.cfi_offset 3, -24
 429              		.cfi_offset 4, -20
 430              		.cfi_offset 5, -16
 431              		.cfi_offset 6, -12
 432              		.cfi_offset 7, -8
 433              		.cfi_offset 14, -4
 434 0002 0746     		mov	r7, r0
 435 0004 0E46     		mov	r6, r1
 436 0006 1546     		mov	r5, r2
  46:Generated_Source\PSoC5/nRF24_HAL.c **** 
 437              		.loc 1 46 0
ARM GAS  C:\Users\USER\AppData\Local\Temp\cc6144Da.s 			page 14


 438 0008 FFF7FEFF 		bl	nRF24_spi_clear_fifo
 439              	.LVL42:
  48:Generated_Source\PSoC5/nRF24_HAL.c **** 
 440              		.loc 1 48 0
 441 000c 0020     		movs	r0, #0
 442 000e FFF7FEFF 		bl	nRF24_ss_write
 443              	.LVL43:
 444              	.LBB2:
  63:Generated_Source\PSoC5/nRF24_HAL.c ****         SPI_WriteTxData(in[i]);
 445              		.loc 1 63 0
 446 0012 0024     		movs	r4, #0
 447 0014 0BE0     		b	.L37
 448              	.LVL44:
 449              	.L39:
  64:Generated_Source\PSoC5/nRF24_HAL.c ****         while (!(SPI_ReadTxStatus() & SPI_STS_BYTE_COMPLETE)) {
 450              		.loc 1 64 0
 451 0016 385D     		ldrb	r0, [r7, r4]	@ zero_extendqisi2
 452 0018 FFF7FEFF 		bl	SPI_WriteTxData
 453              	.LVL45:
 454              	.L38:
  65:Generated_Source\PSoC5/nRF24_HAL.c ****         }
 455              		.loc 1 65 0 discriminator 1
 456 001c FFF7FEFF 		bl	SPI_ReadTxStatus
 457              	.LVL46:
 458 0020 10F0080F 		tst	r0, #8
 459 0024 FAD0     		beq	.L38
  67:Generated_Source\PSoC5/nRF24_HAL.c ****     }
 460              		.loc 1 67 0 discriminator 2
 461 0026 FFF7FEFF 		bl	SPI_ReadRxData
 462              	.LVL47:
 463 002a 3055     		strb	r0, [r6, r4]
  63:Generated_Source\PSoC5/nRF24_HAL.c ****         SPI_WriteTxData(in[i]);
 464              		.loc 1 63 0 discriminator 2
 465 002c 0134     		adds	r4, r4, #1
 466              	.LVL48:
 467              	.L37:
  63:Generated_Source\PSoC5/nRF24_HAL.c ****         SPI_WriteTxData(in[i]);
 468              		.loc 1 63 0 is_stmt 0 discriminator 1
 469 002e AC42     		cmp	r4, r5
 470 0030 F1D3     		bcc	.L39
 471              	.LBE2:
  73:Generated_Source\PSoC5/nRF24_HAL.c **** }
 472              		.loc 1 73 0 is_stmt 1
 473 0032 0120     		movs	r0, #1
 474 0034 FFF7FEFF 		bl	nRF24_ss_write
 475              	.LVL49:
 476 0038 F8BD     		pop	{r3, r4, r5, r6, r7, pc}
 477              		.cfi_endproc
 478              	.LFE1:
 479              		.size	nRF24_default_spi_xfer, .-nRF24_default_spi_xfer
 480 003a 00BF     		.section	.text.nRF24_ce_write,"ax",%progbits
 481              		.align	2
 482              		.global	nRF24_ce_write
 483              		.thumb
 484              		.thumb_func
 485              		.type	nRF24_ce_write, %function
 486              	nRF24_ce_write:
ARM GAS  C:\Users\USER\AppData\Local\Temp\cc6144Da.s 			page 15


 487              	.LFB9:
 233:Generated_Source\PSoC5/nRF24_HAL.c ****     if (GPIO_CLEAR == state) {
 488              		.loc 1 233 0
 489              		.cfi_startproc
 490              		@ args = 0, pretend = 0, frame = 0
 491              		@ frame_needed = 0, uses_anonymous_args = 0
 492              	.LVL50:
 493 0000 08B5     		push	{r3, lr}
 494              		.cfi_def_cfa_offset 8
 495              		.cfi_offset 3, -8
 496              		.cfi_offset 14, -4
 234:Generated_Source\PSoC5/nRF24_HAL.c **** #if defined (_PSOC6)
 497              		.loc 1 234 0
 498 0002 10B9     		cbnz	r0, .L42
 238:Generated_Source\PSoC5/nRF24_HAL.c **** #endif
 499              		.loc 1 238 0
 500 0004 FFF7FEFF 		bl	CE_Write
 501              	.LVL51:
 502 0008 08BD     		pop	{r3, pc}
 503              	.LVL52:
 504              	.L42:
 244:Generated_Source\PSoC5/nRF24_HAL.c **** #endif
 505              		.loc 1 244 0
 506 000a 0120     		movs	r0, #1
 507              	.LVL53:
 508 000c FFF7FEFF 		bl	CE_Write
 509              	.LVL54:
 510 0010 08BD     		pop	{r3, pc}
 511              		.cfi_endproc
 512              	.LFE9:
 513              		.size	nRF24_ce_write, .-nRF24_ce_write
 514              		.global	nRF24_spi_xfer
 515 0012 00BF     		.data
 516              		.align	2
 517              		.set	.LANCHOR0,. + 0
 518              		.type	nRF24_spi_xfer, %object
 519              		.size	nRF24_spi_xfer, 4
 520              	nRF24_spi_xfer:
 521 0000 00000000 		.word	nRF24_default_spi_xfer
 522              		.text
 523              	.Letext0:
 524              		.file 2 "c:\\program files (x86)\\cypress\\psoc creator\\4.2\\psoc creator\\import\\gnu\\arm\\5.4.
 525              		.file 3 "c:\\program files (x86)\\cypress\\psoc creator\\4.2\\psoc creator\\import\\gnu\\arm\\5.4.
 526              		.file 4 "c:\\program files (x86)\\cypress\\psoc creator\\4.2\\psoc creator\\import\\gnu\\arm\\5.4.
 527              		.file 5 "Generated_Source\\PSoC5\\cytypes.h"
 528              		.file 6 "Generated_Source\\PSoC5\\nRF24_DEFS.h"
 529              		.file 7 "Generated_Source\\PSoC5\\nRF24_HAL.h"
 530              		.file 8 "Generated_Source\\PSoC5\\SPI.h"
 531              		.file 9 "Generated_Source\\PSoC5\\SS.h"
 532              		.file 10 "Generated_Source\\PSoC5\\CE.h"